
build/firmware.elf:     file format elf32-littlearm


Disassembly of section .text.progmem:

60000000 <FlexSPI_NOR_Config>:
60000000:	46 43 46 42 00 00 01 56 00 00 00 00 01 01 02 00     FCFB...V........
	...
60000044:	01 04 03 00 00 00 00 00 00 00 00 00 00 00 20 00     .............. .
	...
60000080:	eb 04 18 0a 06 32 04 26 00 00 00 00 00 00 00 00     .....2.&........
60000090:	05 04 04 24 00 00 00 00 00 00 00 00 00 00 00 00     ...$............
	...
600000b0:	06 04 00 00 00 00 00 00 00 00 00 00 00 00 00 00     ................
	...
600000d0:	20 04 18 08 00 00 00 00 00 00 00 00 00 00 00 00      ...............
	...
60000100:	d8 04 18 08 00 00 00 00 00 00 00 00 00 00 00 00     ................
60000110:	02 04 18 08 04 20 00 00 00 00 00 00 00 00 00 00     ..... ..........
	...
60000130:	60 04 00 00 00 00 00 00 00 00 00 00 00 00 00 00     `...............
	...
600001c0:	00 01 00 00 00 10 00 00 01 00 00 00 00 00 00 00     ................
600001d0:	00 00 01 00 00 00 00 00 00 00 00 00 00 00 00 00     ................
	...
60000200:	ff ff ff ff ff ff ff ff ff ff ff ff ff ff ff ff     ................
60000210:	ff ff ff ff ff ff ff ff ff ff ff ff ff ff ff ff     ................
60000220:	ff ff ff ff ff ff ff ff ff ff ff ff ff ff ff ff     ................
60000230:	ff ff ff ff ff ff ff ff ff ff ff ff ff ff ff ff     ................
60000240:	ff ff ff ff ff ff ff ff ff ff ff ff ff ff ff ff     ................
60000250:	ff ff ff ff ff ff ff ff ff ff ff ff ff ff ff ff     ................
60000260:	ff ff ff ff ff ff ff ff ff ff ff ff ff ff ff ff     ................
60000270:	ff ff ff ff ff ff ff ff ff ff ff ff ff ff ff ff     ................
60000280:	ff ff ff ff ff ff ff ff ff ff ff ff ff ff ff ff     ................
60000290:	ff ff ff ff ff ff ff ff ff ff ff ff ff ff ff ff     ................
600002a0:	ff ff ff ff ff ff ff ff ff ff ff ff ff ff ff ff     ................
600002b0:	ff ff ff ff ff ff ff ff ff ff ff ff ff ff ff ff     ................
600002c0:	ff ff ff ff ff ff ff ff ff ff ff ff ff ff ff ff     ................
600002d0:	ff ff ff ff ff ff ff ff ff ff ff ff ff ff ff ff     ................
600002e0:	ff ff ff ff ff ff ff ff ff ff ff ff ff ff ff ff     ................
600002f0:	ff ff ff ff ff ff ff ff ff ff ff ff ff ff ff ff     ................
60000300:	ff ff ff ff ff ff ff ff ff ff ff ff ff ff ff ff     ................
60000310:	ff ff ff ff ff ff ff ff ff ff ff ff ff ff ff ff     ................
60000320:	ff ff ff ff ff ff ff ff ff ff ff ff ff ff ff ff     ................
60000330:	ff ff ff ff ff ff ff ff ff ff ff ff ff ff ff ff     ................
60000340:	ff ff ff ff ff ff ff ff ff ff ff ff ff ff ff ff     ................
60000350:	ff ff ff ff ff ff ff ff ff ff ff ff ff ff ff ff     ................
60000360:	ff ff ff ff ff ff ff ff ff ff ff ff ff ff ff ff     ................
60000370:	ff ff ff ff ff ff ff ff ff ff ff ff ff ff ff ff     ................
60000380:	ff ff ff ff ff ff ff ff ff ff ff ff ff ff ff ff     ................
60000390:	ff ff ff ff ff ff ff ff ff ff ff ff ff ff ff ff     ................
600003a0:	ff ff ff ff ff ff ff ff ff ff ff ff ff ff ff ff     ................
600003b0:	ff ff ff ff ff ff ff ff ff ff ff ff ff ff ff ff     ................
600003c0:	ff ff ff ff ff ff ff ff ff ff ff ff ff ff ff ff     ................
600003d0:	ff ff ff ff ff ff ff ff ff ff ff ff ff ff ff ff     ................
600003e0:	ff ff ff ff ff ff ff ff ff ff ff ff ff ff ff ff     ................
600003f0:	ff ff ff ff ff ff ff ff ff ff ff ff ff ff ff ff     ................
60000400:	ff ff ff ff ff ff ff ff ff ff ff ff ff ff ff ff     ................
60000410:	ff ff ff ff ff ff ff ff ff ff ff ff ff ff ff ff     ................
60000420:	ff ff ff ff ff ff ff ff ff ff ff ff ff ff ff ff     ................
60000430:	ff ff ff ff ff ff ff ff ff ff ff ff ff ff ff ff     ................
60000440:	ff ff ff ff ff ff ff ff ff ff ff ff ff ff ff ff     ................
60000450:	ff ff ff ff ff ff ff ff ff ff ff ff ff ff ff ff     ................
60000460:	ff ff ff ff ff ff ff ff ff ff ff ff ff ff ff ff     ................
60000470:	ff ff ff ff ff ff ff ff ff ff ff ff ff ff ff ff     ................
60000480:	ff ff ff ff ff ff ff ff ff ff ff ff ff ff ff ff     ................
60000490:	ff ff ff ff ff ff ff ff ff ff ff ff ff ff ff ff     ................
600004a0:	ff ff ff ff ff ff ff ff ff ff ff ff ff ff ff ff     ................
600004b0:	ff ff ff ff ff ff ff ff ff ff ff ff ff ff ff ff     ................
600004c0:	ff ff ff ff ff ff ff ff ff ff ff ff ff ff ff ff     ................
600004d0:	ff ff ff ff ff ff ff ff ff ff ff ff ff ff ff ff     ................
600004e0:	ff ff ff ff ff ff ff ff ff ff ff ff ff ff ff ff     ................
600004f0:	ff ff ff ff ff ff ff ff ff ff ff ff ff ff ff ff     ................
60000500:	ff ff ff ff ff ff ff ff ff ff ff ff ff ff ff ff     ................
60000510:	ff ff ff ff ff ff ff ff ff ff ff ff ff ff ff ff     ................
60000520:	ff ff ff ff ff ff ff ff ff ff ff ff ff ff ff ff     ................
60000530:	ff ff ff ff ff ff ff ff ff ff ff ff ff ff ff ff     ................
60000540:	ff ff ff ff ff ff ff ff ff ff ff ff ff ff ff ff     ................
60000550:	ff ff ff ff ff ff ff ff ff ff ff ff ff ff ff ff     ................
60000560:	ff ff ff ff ff ff ff ff ff ff ff ff ff ff ff ff     ................
60000570:	ff ff ff ff ff ff ff ff ff ff ff ff ff ff ff ff     ................
60000580:	ff ff ff ff ff ff ff ff ff ff ff ff ff ff ff ff     ................
60000590:	ff ff ff ff ff ff ff ff ff ff ff ff ff ff ff ff     ................
600005a0:	ff ff ff ff ff ff ff ff ff ff ff ff ff ff ff ff     ................
600005b0:	ff ff ff ff ff ff ff ff ff ff ff ff ff ff ff ff     ................
600005c0:	ff ff ff ff ff ff ff ff ff ff ff ff ff ff ff ff     ................
600005d0:	ff ff ff ff ff ff ff ff ff ff ff ff ff ff ff ff     ................
600005e0:	ff ff ff ff ff ff ff ff ff ff ff ff ff ff ff ff     ................
600005f0:	ff ff ff ff ff ff ff ff ff ff ff ff ff ff ff ff     ................
60000600:	ff ff ff ff ff ff ff ff ff ff ff ff ff ff ff ff     ................
60000610:	ff ff ff ff ff ff ff ff ff ff ff ff ff ff ff ff     ................
60000620:	ff ff ff ff ff ff ff ff ff ff ff ff ff ff ff ff     ................
60000630:	ff ff ff ff ff ff ff ff ff ff ff ff ff ff ff ff     ................
60000640:	ff ff ff ff ff ff ff ff ff ff ff ff ff ff ff ff     ................
60000650:	ff ff ff ff ff ff ff ff ff ff ff ff ff ff ff ff     ................
60000660:	ff ff ff ff ff ff ff ff ff ff ff ff ff ff ff ff     ................
60000670:	ff ff ff ff ff ff ff ff ff ff ff ff ff ff ff ff     ................
60000680:	ff ff ff ff ff ff ff ff ff ff ff ff ff ff ff ff     ................
60000690:	ff ff ff ff ff ff ff ff ff ff ff ff ff ff ff ff     ................
600006a0:	ff ff ff ff ff ff ff ff ff ff ff ff ff ff ff ff     ................
600006b0:	ff ff ff ff ff ff ff ff ff ff ff ff ff ff ff ff     ................
600006c0:	ff ff ff ff ff ff ff ff ff ff ff ff ff ff ff ff     ................
600006d0:	ff ff ff ff ff ff ff ff ff ff ff ff ff ff ff ff     ................
600006e0:	ff ff ff ff ff ff ff ff ff ff ff ff ff ff ff ff     ................
600006f0:	ff ff ff ff ff ff ff ff ff ff ff ff ff ff ff ff     ................
60000700:	ff ff ff ff ff ff ff ff ff ff ff ff ff ff ff ff     ................
60000710:	ff ff ff ff ff ff ff ff ff ff ff ff ff ff ff ff     ................
60000720:	ff ff ff ff ff ff ff ff ff ff ff ff ff ff ff ff     ................
60000730:	ff ff ff ff ff ff ff ff ff ff ff ff ff ff ff ff     ................
60000740:	ff ff ff ff ff ff ff ff ff ff ff ff ff ff ff ff     ................
60000750:	ff ff ff ff ff ff ff ff ff ff ff ff ff ff ff ff     ................
60000760:	ff ff ff ff ff ff ff ff ff ff ff ff ff ff ff ff     ................
60000770:	ff ff ff ff ff ff ff ff ff ff ff ff ff ff ff ff     ................
60000780:	ff ff ff ff ff ff ff ff ff ff ff ff ff ff ff ff     ................
60000790:	ff ff ff ff ff ff ff ff ff ff ff ff ff ff ff ff     ................
600007a0:	ff ff ff ff ff ff ff ff ff ff ff ff ff ff ff ff     ................
600007b0:	ff ff ff ff ff ff ff ff ff ff ff ff ff ff ff ff     ................
600007c0:	ff ff ff ff ff ff ff ff ff ff ff ff ff ff ff ff     ................
600007d0:	ff ff ff ff ff ff ff ff ff ff ff ff ff ff ff ff     ................
600007e0:	ff ff ff ff ff ff ff ff ff ff ff ff ff ff ff ff     ................
600007f0:	ff ff ff ff ff ff ff ff ff ff ff ff ff ff ff ff     ................
60000800:	ff ff ff ff ff ff ff ff ff ff ff ff ff ff ff ff     ................
60000810:	ff ff ff ff ff ff ff ff ff ff ff ff ff ff ff ff     ................
60000820:	ff ff ff ff ff ff ff ff ff ff ff ff ff ff ff ff     ................
60000830:	ff ff ff ff ff ff ff ff ff ff ff ff ff ff ff ff     ................
60000840:	ff ff ff ff ff ff ff ff ff ff ff ff ff ff ff ff     ................
60000850:	ff ff ff ff ff ff ff ff ff ff ff ff ff ff ff ff     ................
60000860:	ff ff ff ff ff ff ff ff ff ff ff ff ff ff ff ff     ................
60000870:	ff ff ff ff ff ff ff ff ff ff ff ff ff ff ff ff     ................
60000880:	ff ff ff ff ff ff ff ff ff ff ff ff ff ff ff ff     ................
60000890:	ff ff ff ff ff ff ff ff ff ff ff ff ff ff ff ff     ................
600008a0:	ff ff ff ff ff ff ff ff ff ff ff ff ff ff ff ff     ................
600008b0:	ff ff ff ff ff ff ff ff ff ff ff ff ff ff ff ff     ................
600008c0:	ff ff ff ff ff ff ff ff ff ff ff ff ff ff ff ff     ................
600008d0:	ff ff ff ff ff ff ff ff ff ff ff ff ff ff ff ff     ................
600008e0:	ff ff ff ff ff ff ff ff ff ff ff ff ff ff ff ff     ................
600008f0:	ff ff ff ff ff ff ff ff ff ff ff ff ff ff ff ff     ................
60000900:	ff ff ff ff ff ff ff ff ff ff ff ff ff ff ff ff     ................
60000910:	ff ff ff ff ff ff ff ff ff ff ff ff ff ff ff ff     ................
60000920:	ff ff ff ff ff ff ff ff ff ff ff ff ff ff ff ff     ................
60000930:	ff ff ff ff ff ff ff ff ff ff ff ff ff ff ff ff     ................
60000940:	ff ff ff ff ff ff ff ff ff ff ff ff ff ff ff ff     ................
60000950:	ff ff ff ff ff ff ff ff ff ff ff ff ff ff ff ff     ................
60000960:	ff ff ff ff ff ff ff ff ff ff ff ff ff ff ff ff     ................
60000970:	ff ff ff ff ff ff ff ff ff ff ff ff ff ff ff ff     ................
60000980:	ff ff ff ff ff ff ff ff ff ff ff ff ff ff ff ff     ................
60000990:	ff ff ff ff ff ff ff ff ff ff ff ff ff ff ff ff     ................
600009a0:	ff ff ff ff ff ff ff ff ff ff ff ff ff ff ff ff     ................
600009b0:	ff ff ff ff ff ff ff ff ff ff ff ff ff ff ff ff     ................
600009c0:	ff ff ff ff ff ff ff ff ff ff ff ff ff ff ff ff     ................
600009d0:	ff ff ff ff ff ff ff ff ff ff ff ff ff ff ff ff     ................
600009e0:	ff ff ff ff ff ff ff ff ff ff ff ff ff ff ff ff     ................
600009f0:	ff ff ff ff ff ff ff ff ff ff ff ff ff ff ff ff     ................
60000a00:	ff ff ff ff ff ff ff ff ff ff ff ff ff ff ff ff     ................
60000a10:	ff ff ff ff ff ff ff ff ff ff ff ff ff ff ff ff     ................
60000a20:	ff ff ff ff ff ff ff ff ff ff ff ff ff ff ff ff     ................
60000a30:	ff ff ff ff ff ff ff ff ff ff ff ff ff ff ff ff     ................
60000a40:	ff ff ff ff ff ff ff ff ff ff ff ff ff ff ff ff     ................
60000a50:	ff ff ff ff ff ff ff ff ff ff ff ff ff ff ff ff     ................
60000a60:	ff ff ff ff ff ff ff ff ff ff ff ff ff ff ff ff     ................
60000a70:	ff ff ff ff ff ff ff ff ff ff ff ff ff ff ff ff     ................
60000a80:	ff ff ff ff ff ff ff ff ff ff ff ff ff ff ff ff     ................
60000a90:	ff ff ff ff ff ff ff ff ff ff ff ff ff ff ff ff     ................
60000aa0:	ff ff ff ff ff ff ff ff ff ff ff ff ff ff ff ff     ................
60000ab0:	ff ff ff ff ff ff ff ff ff ff ff ff ff ff ff ff     ................
60000ac0:	ff ff ff ff ff ff ff ff ff ff ff ff ff ff ff ff     ................
60000ad0:	ff ff ff ff ff ff ff ff ff ff ff ff ff ff ff ff     ................
60000ae0:	ff ff ff ff ff ff ff ff ff ff ff ff ff ff ff ff     ................
60000af0:	ff ff ff ff ff ff ff ff ff ff ff ff ff ff ff ff     ................
60000b00:	ff ff ff ff ff ff ff ff ff ff ff ff ff ff ff ff     ................
60000b10:	ff ff ff ff ff ff ff ff ff ff ff ff ff ff ff ff     ................
60000b20:	ff ff ff ff ff ff ff ff ff ff ff ff ff ff ff ff     ................
60000b30:	ff ff ff ff ff ff ff ff ff ff ff ff ff ff ff ff     ................
60000b40:	ff ff ff ff ff ff ff ff ff ff ff ff ff ff ff ff     ................
60000b50:	ff ff ff ff ff ff ff ff ff ff ff ff ff ff ff ff     ................
60000b60:	ff ff ff ff ff ff ff ff ff ff ff ff ff ff ff ff     ................
60000b70:	ff ff ff ff ff ff ff ff ff ff ff ff ff ff ff ff     ................
60000b80:	ff ff ff ff ff ff ff ff ff ff ff ff ff ff ff ff     ................
60000b90:	ff ff ff ff ff ff ff ff ff ff ff ff ff ff ff ff     ................
60000ba0:	ff ff ff ff ff ff ff ff ff ff ff ff ff ff ff ff     ................
60000bb0:	ff ff ff ff ff ff ff ff ff ff ff ff ff ff ff ff     ................
60000bc0:	ff ff ff ff ff ff ff ff ff ff ff ff ff ff ff ff     ................
60000bd0:	ff ff ff ff ff ff ff ff ff ff ff ff ff ff ff ff     ................
60000be0:	ff ff ff ff ff ff ff ff ff ff ff ff ff ff ff ff     ................
60000bf0:	ff ff ff ff ff ff ff ff ff ff ff ff ff ff ff ff     ................
60000c00:	ff ff ff ff ff ff ff ff ff ff ff ff ff ff ff ff     ................
60000c10:	ff ff ff ff ff ff ff ff ff ff ff ff ff ff ff ff     ................
60000c20:	ff ff ff ff ff ff ff ff ff ff ff ff ff ff ff ff     ................
60000c30:	ff ff ff ff ff ff ff ff ff ff ff ff ff ff ff ff     ................
60000c40:	ff ff ff ff ff ff ff ff ff ff ff ff ff ff ff ff     ................
60000c50:	ff ff ff ff ff ff ff ff ff ff ff ff ff ff ff ff     ................
60000c60:	ff ff ff ff ff ff ff ff ff ff ff ff ff ff ff ff     ................
60000c70:	ff ff ff ff ff ff ff ff ff ff ff ff ff ff ff ff     ................
60000c80:	ff ff ff ff ff ff ff ff ff ff ff ff ff ff ff ff     ................
60000c90:	ff ff ff ff ff ff ff ff ff ff ff ff ff ff ff ff     ................
60000ca0:	ff ff ff ff ff ff ff ff ff ff ff ff ff ff ff ff     ................
60000cb0:	ff ff ff ff ff ff ff ff ff ff ff ff ff ff ff ff     ................
60000cc0:	ff ff ff ff ff ff ff ff ff ff ff ff ff ff ff ff     ................
60000cd0:	ff ff ff ff ff ff ff ff ff ff ff ff ff ff ff ff     ................
60000ce0:	ff ff ff ff ff ff ff ff ff ff ff ff ff ff ff ff     ................
60000cf0:	ff ff ff ff ff ff ff ff ff ff ff ff ff ff ff ff     ................
60000d00:	ff ff ff ff ff ff ff ff ff ff ff ff ff ff ff ff     ................
60000d10:	ff ff ff ff ff ff ff ff ff ff ff ff ff ff ff ff     ................
60000d20:	ff ff ff ff ff ff ff ff ff ff ff ff ff ff ff ff     ................
60000d30:	ff ff ff ff ff ff ff ff ff ff ff ff ff ff ff ff     ................
60000d40:	ff ff ff ff ff ff ff ff ff ff ff ff ff ff ff ff     ................
60000d50:	ff ff ff ff ff ff ff ff ff ff ff ff ff ff ff ff     ................
60000d60:	ff ff ff ff ff ff ff ff ff ff ff ff ff ff ff ff     ................
60000d70:	ff ff ff ff ff ff ff ff ff ff ff ff ff ff ff ff     ................
60000d80:	ff ff ff ff ff ff ff ff ff ff ff ff ff ff ff ff     ................
60000d90:	ff ff ff ff ff ff ff ff ff ff ff ff ff ff ff ff     ................
60000da0:	ff ff ff ff ff ff ff ff ff ff ff ff ff ff ff ff     ................
60000db0:	ff ff ff ff ff ff ff ff ff ff ff ff ff ff ff ff     ................
60000dc0:	ff ff ff ff ff ff ff ff ff ff ff ff ff ff ff ff     ................
60000dd0:	ff ff ff ff ff ff ff ff ff ff ff ff ff ff ff ff     ................
60000de0:	ff ff ff ff ff ff ff ff ff ff ff ff ff ff ff ff     ................
60000df0:	ff ff ff ff ff ff ff ff ff ff ff ff ff ff ff ff     ................
60000e00:	ff ff ff ff ff ff ff ff ff ff ff ff ff ff ff ff     ................
60000e10:	ff ff ff ff ff ff ff ff ff ff ff ff ff ff ff ff     ................
60000e20:	ff ff ff ff ff ff ff ff ff ff ff ff ff ff ff ff     ................
60000e30:	ff ff ff ff ff ff ff ff ff ff ff ff ff ff ff ff     ................
60000e40:	ff ff ff ff ff ff ff ff ff ff ff ff ff ff ff ff     ................
60000e50:	ff ff ff ff ff ff ff ff ff ff ff ff ff ff ff ff     ................
60000e60:	ff ff ff ff ff ff ff ff ff ff ff ff ff ff ff ff     ................
60000e70:	ff ff ff ff ff ff ff ff ff ff ff ff ff ff ff ff     ................
60000e80:	ff ff ff ff ff ff ff ff ff ff ff ff ff ff ff ff     ................
60000e90:	ff ff ff ff ff ff ff ff ff ff ff ff ff ff ff ff     ................
60000ea0:	ff ff ff ff ff ff ff ff ff ff ff ff ff ff ff ff     ................
60000eb0:	ff ff ff ff ff ff ff ff ff ff ff ff ff ff ff ff     ................
60000ec0:	ff ff ff ff ff ff ff ff ff ff ff ff ff ff ff ff     ................
60000ed0:	ff ff ff ff ff ff ff ff ff ff ff ff ff ff ff ff     ................
60000ee0:	ff ff ff ff ff ff ff ff ff ff ff ff ff ff ff ff     ................
60000ef0:	ff ff ff ff ff ff ff ff ff ff ff ff ff ff ff ff     ................
60000f00:	ff ff ff ff ff ff ff ff ff ff ff ff ff ff ff ff     ................
60000f10:	ff ff ff ff ff ff ff ff ff ff ff ff ff ff ff ff     ................
60000f20:	ff ff ff ff ff ff ff ff ff ff ff ff ff ff ff ff     ................
60000f30:	ff ff ff ff ff ff ff ff ff ff ff ff ff ff ff ff     ................
60000f40:	ff ff ff ff ff ff ff ff ff ff ff ff ff ff ff ff     ................
60000f50:	ff ff ff ff ff ff ff ff ff ff ff ff ff ff ff ff     ................
60000f60:	ff ff ff ff ff ff ff ff ff ff ff ff ff ff ff ff     ................
60000f70:	ff ff ff ff ff ff ff ff ff ff ff ff ff ff ff ff     ................
60000f80:	ff ff ff ff ff ff ff ff ff ff ff ff ff ff ff ff     ................
60000f90:	ff ff ff ff ff ff ff ff ff ff ff ff ff ff ff ff     ................
60000fa0:	ff ff ff ff ff ff ff ff ff ff ff ff ff ff ff ff     ................
60000fb0:	ff ff ff ff ff ff ff ff ff ff ff ff ff ff ff ff     ................
60000fc0:	ff ff ff ff ff ff ff ff ff ff ff ff ff ff ff ff     ................
60000fd0:	ff ff ff ff ff ff ff ff ff ff ff ff ff ff ff ff     ................
60000fe0:	ff ff ff ff ff ff ff ff ff ff ff ff ff ff ff ff     ................
60000ff0:	ff ff ff ff ff ff ff ff ff ff ff ff ff ff ff ff     ................

60001000 <ImageVectorTable>:
60001000:	d1 00 20 40 2c 10 00 60 00 00 00 00 00 00 00 00     .. @,..`........
60001010:	20 10 00 60 00 10 00 60 00 00 00 00 00 00 00 00      ..`...`........

60001020 <BootData>:
60001020:	00 00 00 60 60 2e 00 00 00 00 00 00                 ...``.......

6000102c <vector_table>:
6000102c:	00 00 01 20 35 10 00 60                             ... 5..`

60001034 <startup>:
60001034:	4b5a      	ldr	r3, [pc, #360]	; (600011a0 <startup+0x16c>)
60001036:	2007      	movs	r0, #7
60001038:	4a5a      	ldr	r2, [pc, #360]	; (600011a4 <startup+0x170>)
6000103a:	f44f 012a 	mov.w	r1, #11141120	; 0xaa0000
6000103e:	645a      	str	r2, [r3, #68]	; 0x44
60001040:	6418      	str	r0, [r3, #64]	; 0x40
60001042:	4a59      	ldr	r2, [pc, #356]	; (600011a8 <startup+0x174>)
60001044:	6399      	str	r1, [r3, #56]	; 0x38
60001046:	4695      	mov	sp, r2
60001048:	4c58      	ldr	r4, [pc, #352]	; (600011ac <startup+0x178>)
6000104a:	4859      	ldr	r0, [pc, #356]	; (600011b0 <startup+0x17c>)
6000104c:	4284      	cmp	r4, r0
6000104e:	d023      	beq.n	60001098 <startup+0x64>
60001050:	4b58      	ldr	r3, [pc, #352]	; (600011b4 <startup+0x180>)
60001052:	429c      	cmp	r4, r3
60001054:	d220      	bcs.n	60001098 <startup+0x64>
60001056:	ea40 0104 	orr.w	r1, r0, r4
6000105a:	3b01      	subs	r3, #1
6000105c:	4622      	mov	r2, r4
6000105e:	0749      	lsls	r1, r1, #29
60001060:	eba3 0304 	sub.w	r3, r3, r4
60001064:	f040 8090 	bne.w	60001188 <startup+0x154>
60001068:	2b1f      	cmp	r3, #31
6000106a:	f240 808d 	bls.w	60001188 <startup+0x154>
6000106e:	0899      	lsrs	r1, r3, #2
60001070:	4603      	mov	r3, r0
60001072:	3101      	adds	r1, #1
60001074:	ea4f 0c51 	mov.w	ip, r1, lsr #1
60001078:	eb00 0ccc 	add.w	ip, r0, ip, lsl #3
6000107c:	e8f3 6702 	ldrd	r6, r7, [r3], #8
60001080:	4563      	cmp	r3, ip
60001082:	e8e2 6702 	strd	r6, r7, [r2], #8
60001086:	d1f9      	bne.n	6000107c <startup+0x48>
60001088:	07ca      	lsls	r2, r1, #31
6000108a:	f021 0301 	bic.w	r3, r1, #1
6000108e:	d503      	bpl.n	60001098 <startup+0x64>
60001090:	f850 2023 	ldr.w	r2, [r0, r3, lsl #2]
60001094:	f844 2023 	str.w	r2, [r4, r3, lsl #2]
60001098:	4c47      	ldr	r4, [pc, #284]	; (600011b8 <startup+0x184>)
6000109a:	4848      	ldr	r0, [pc, #288]	; (600011bc <startup+0x188>)
6000109c:	4284      	cmp	r4, r0
6000109e:	d021      	beq.n	600010e4 <startup+0xb0>
600010a0:	4b47      	ldr	r3, [pc, #284]	; (600011c0 <startup+0x18c>)
600010a2:	429c      	cmp	r4, r3
600010a4:	d21e      	bcs.n	600010e4 <startup+0xb0>
600010a6:	ea40 0104 	orr.w	r1, r0, r4
600010aa:	3b01      	subs	r3, #1
600010ac:	4622      	mov	r2, r4
600010ae:	0749      	lsls	r1, r1, #29
600010b0:	eba3 0304 	sub.w	r3, r3, r4
600010b4:	d15c      	bne.n	60001170 <startup+0x13c>
600010b6:	2b1f      	cmp	r3, #31
600010b8:	d95a      	bls.n	60001170 <startup+0x13c>
600010ba:	0899      	lsrs	r1, r3, #2
600010bc:	4603      	mov	r3, r0
600010be:	3101      	adds	r1, #1
600010c0:	ea4f 0c51 	mov.w	ip, r1, lsr #1
600010c4:	eb00 0ccc 	add.w	ip, r0, ip, lsl #3
600010c8:	e8f3 6702 	ldrd	r6, r7, [r3], #8
600010cc:	459c      	cmp	ip, r3
600010ce:	e8e2 6702 	strd	r6, r7, [r2], #8
600010d2:	d1f9      	bne.n	600010c8 <startup+0x94>
600010d4:	07ca      	lsls	r2, r1, #31
600010d6:	f021 0301 	bic.w	r3, r1, #1
600010da:	d503      	bpl.n	600010e4 <startup+0xb0>
600010dc:	f850 2023 	ldr.w	r2, [r0, r3, lsl #2]
600010e0:	f844 2023 	str.w	r2, [r4, r3, lsl #2]
600010e4:	4b37      	ldr	r3, [pc, #220]	; (600011c4 <startup+0x190>)
600010e6:	4c38      	ldr	r4, [pc, #224]	; (600011c8 <startup+0x194>)
600010e8:	42a3      	cmp	r3, r4
600010ea:	d23a      	bcs.n	60001162 <startup+0x12e>
600010ec:	1e62      	subs	r2, r4, #1
600010ee:	f3c3 0180 	ubfx	r1, r3, #2, #1
600010f2:	1ad2      	subs	r2, r2, r3
600010f4:	0890      	lsrs	r0, r2, #2
600010f6:	2a17      	cmp	r2, #23
600010f8:	f100 0001 	add.w	r0, r0, #1
600010fc:	d916      	bls.n	6000112c <startup+0xf8>
600010fe:	b3a9      	cbz	r1, 6000116c <startup+0x138>
60001100:	2600      	movs	r6, #0
60001102:	461a      	mov	r2, r3
60001104:	f842 6b04 	str.w	r6, [r2], #4
60001108:	1a40      	subs	r0, r0, r1
6000110a:	eb03 0381 	add.w	r3, r3, r1, lsl #2
6000110e:	2600      	movs	r6, #0
60001110:	2700      	movs	r7, #0
60001112:	0841      	lsrs	r1, r0, #1
60001114:	eb03 01c1 	add.w	r1, r3, r1, lsl #3
60001118:	e8e3 6702 	strd	r6, r7, [r3], #8
6000111c:	428b      	cmp	r3, r1
6000111e:	d1fb      	bne.n	60001118 <startup+0xe4>
60001120:	f020 0101 	bic.w	r1, r0, #1
60001124:	4288      	cmp	r0, r1
60001126:	eb02 0381 	add.w	r3, r2, r1, lsl #2
6000112a:	d01a      	beq.n	60001162 <startup+0x12e>
6000112c:	4619      	mov	r1, r3
6000112e:	2200      	movs	r2, #0
60001130:	f841 2b04 	str.w	r2, [r1], #4
60001134:	42a1      	cmp	r1, r4
60001136:	d214      	bcs.n	60001162 <startup+0x12e>
60001138:	f103 0108 	add.w	r1, r3, #8
6000113c:	605a      	str	r2, [r3, #4]
6000113e:	42a1      	cmp	r1, r4
60001140:	d20f      	bcs.n	60001162 <startup+0x12e>
60001142:	f103 010c 	add.w	r1, r3, #12
60001146:	609a      	str	r2, [r3, #8]
60001148:	42a1      	cmp	r1, r4
6000114a:	d20a      	bcs.n	60001162 <startup+0x12e>
6000114c:	f103 0110 	add.w	r1, r3, #16
60001150:	60da      	str	r2, [r3, #12]
60001152:	42a1      	cmp	r1, r4
60001154:	d205      	bcs.n	60001162 <startup+0x12e>
60001156:	f103 0114 	add.w	r1, r3, #20
6000115a:	611a      	str	r2, [r3, #16]
6000115c:	42a1      	cmp	r1, r4
6000115e:	bf38      	it	cc
60001160:	615a      	strcc	r2, [r3, #20]
60001162:	b662      	cpsie	i
60001164:	f000 f838 	bl	600011d8 <____init_ram_heap___veneer>
60001168:	f000 b832 	b.w	600011d0 <__main_veneer>
6000116c:	461a      	mov	r2, r3
6000116e:	e7cb      	b.n	60001108 <startup+0xd4>
60001170:	f023 0303 	bic.w	r3, r3, #3
60001174:	4911      	ldr	r1, [pc, #68]	; (600011bc <startup+0x188>)
60001176:	3304      	adds	r3, #4
60001178:	4418      	add	r0, r3
6000117a:	f851 3b04 	ldr.w	r3, [r1], #4
6000117e:	4281      	cmp	r1, r0
60001180:	f842 3b04 	str.w	r3, [r2], #4
60001184:	d1f9      	bne.n	6000117a <startup+0x146>
60001186:	e7ad      	b.n	600010e4 <startup+0xb0>
60001188:	f023 0303 	bic.w	r3, r3, #3
6000118c:	4908      	ldr	r1, [pc, #32]	; (600011b0 <startup+0x17c>)
6000118e:	3304      	adds	r3, #4
60001190:	4418      	add	r0, r3
60001192:	f851 3b04 	ldr.w	r3, [r1], #4
60001196:	4281      	cmp	r1, r0
60001198:	f842 3b04 	str.w	r3, [r2], #4
6000119c:	d1f9      	bne.n	60001192 <startup+0x15e>
6000119e:	e77b      	b.n	60001098 <startup+0x64>
600011a0:	400ac000 	.word	0x400ac000
600011a4:	aaaaaaab 	.word	0xaaaaaaab
600011a8:	20078000 	.word	0x20078000
600011ac:	00000000 	.word	0x00000000
600011b0:	600011e0 	.word	0x600011e0
600011b4:	00001c60 	.word	0x00001c60
600011b8:	20000000 	.word	0x20000000
600011bc:	60002e40 	.word	0x60002e40
600011c0:	20000020 	.word	0x20000020
600011c4:	20000020 	.word	0x20000020
600011c8:	20000ae0 	.word	0x20000ae0
600011cc:	ffffffff 	.word	0xffffffff

600011d0 <__main_veneer>:
600011d0:	f85f f000 	ldr.w	pc, [pc]	; 600011d4 <__main_veneer+0x4>
600011d4:	0000182d 	.word	0x0000182d

600011d8 <____init_ram_heap___veneer>:
600011d8:	f85f f000 	ldr.w	pc, [pc]	; 600011dc <____init_ram_heap___veneer+0x4>
600011dc:	00000339 	.word	0x00000339

Disassembly of section .text.itcm:

00000000 <_stext>:
	...

00000020 <init_device_muxmode>:
      20:	e92d 41f0 	stmdb	sp!, {r4, r5, r6, r7, r8, lr}
      24:	2010      	movs	r0, #16
      26:	f89d 5018 	ldrb.w	r5, [sp, #24]
      2a:	460f      	mov	r7, r1
      2c:	4616      	mov	r6, r2
      2e:	461c      	mov	r4, r3
      30:	f89d 801c 	ldrb.w	r8, [sp, #28]
      34:	f000 f8a0 	bl	178 <malloc_>
      38:	b160      	cbz	r0, 54 <_teensy_model_identifier+0x2f>
      3a:	00e3      	lsls	r3, r4, #3
      3c:	7345      	strb	r5, [r0, #13]
      3e:	b22d      	sxth	r5, r5
      40:	f880 800c 	strb.w	r8, [r0, #12]
      44:	f003 0338 	and.w	r3, r3, #56	; 0x38
      48:	6007      	str	r7, [r0, #0]
      4a:	f847 8025 	str.w	r8, [r7, r5, lsl #2]
      4e:	6046      	str	r6, [r0, #4]
      50:	f846 3025 	str.w	r3, [r6, r5, lsl #2]
      54:	e8bd 81f0 	ldmia.w	sp!, {r4, r5, r6, r7, r8, pc}

00000058 <set_muxmode>:
      58:	6803      	ldr	r3, [r0, #0]
      5a:	6019      	str	r1, [r3, #0]
      5c:	4770      	bx	lr
      5e:	bf00      	nop

00000060 <__coalesce_back__.part.0>:
      60:	b538      	push	{r3, r4, r5, lr}
      62:	4604      	mov	r4, r0
      64:	8900      	ldrh	r0, [r0, #8]
      66:	2100      	movs	r1, #0
      68:	6822      	ldr	r2, [r4, #0]
      6a:	8913      	ldrh	r3, [r2, #8]
      6c:	4403      	add	r3, r0
      6e:	b29b      	uxth	r3, r3
      70:	8113      	strh	r3, [r2, #8]
      72:	8121      	strh	r1, [r4, #8]
      74:	6823      	ldr	r3, [r4, #0]
      76:	6862      	ldr	r2, [r4, #4]
      78:	605a      	str	r2, [r3, #4]
      7a:	6825      	ldr	r5, [r4, #0]
      7c:	682b      	ldr	r3, [r5, #0]
      7e:	2b00      	cmp	r3, #0
      80:	d02f      	beq.n	e2 <__coalesce_back__.part.0+0x82>
      82:	682b      	ldr	r3, [r5, #0]
      84:	7a9b      	ldrb	r3, [r3, #10]
      86:	07da      	lsls	r2, r3, #31
      88:	d40b      	bmi.n	a2 <__coalesce_back__.part.0+0x42>
      8a:	4918      	ldr	r1, [pc, #96]	; (ec <__coalesce_back__.part.0+0x8c>)
      8c:	7aa3      	ldrb	r3, [r4, #10]
      8e:	4628      	mov	r0, r5
      90:	091b      	lsrs	r3, r3, #4
      92:	f003 0304 	and.w	r3, r3, #4
      96:	f831 2013 	ldrh.w	r2, [r1, r3, lsl #1]
      9a:	3a01      	subs	r2, #1
      9c:	f821 2013 	strh.w	r2, [r1, r3, lsl #1]
      a0:	bd38      	pop	{r3, r4, r5, pc}
      a2:	8928      	ldrh	r0, [r5, #8]
      a4:	682a      	ldr	r2, [r5, #0]
      a6:	8913      	ldrh	r3, [r2, #8]
      a8:	4403      	add	r3, r0
      aa:	b29b      	uxth	r3, r3
      ac:	8113      	strh	r3, [r2, #8]
      ae:	8129      	strh	r1, [r5, #8]
      b0:	682b      	ldr	r3, [r5, #0]
      b2:	686a      	ldr	r2, [r5, #4]
      b4:	605a      	str	r2, [r3, #4]
      b6:	6828      	ldr	r0, [r5, #0]
      b8:	6803      	ldr	r3, [r0, #0]
      ba:	b1a3      	cbz	r3, e6 <__coalesce_back__.part.0+0x86>
      bc:	6803      	ldr	r3, [r0, #0]
      be:	7a9b      	ldrb	r3, [r3, #10]
      c0:	07db      	lsls	r3, r3, #31
      c2:	d40b      	bmi.n	dc <__coalesce_back__.part.0+0x7c>
      c4:	7aab      	ldrb	r3, [r5, #10]
      c6:	4605      	mov	r5, r0
      c8:	4908      	ldr	r1, [pc, #32]	; (ec <__coalesce_back__.part.0+0x8c>)
      ca:	091b      	lsrs	r3, r3, #4
      cc:	f003 0304 	and.w	r3, r3, #4
      d0:	f831 2013 	ldrh.w	r2, [r1, r3, lsl #1]
      d4:	3a01      	subs	r2, #1
      d6:	f821 2013 	strh.w	r2, [r1, r3, lsl #1]
      da:	e7d7      	b.n	8c <__coalesce_back__.part.0+0x2c>
      dc:	f7ff ffc0 	bl	60 <__coalesce_back__.part.0>
      e0:	e7f0      	b.n	c4 <__coalesce_back__.part.0+0x64>
      e2:	461d      	mov	r5, r3
      e4:	e7d1      	b.n	8a <__coalesce_back__.part.0+0x2a>
      e6:	4618      	mov	r0, r3
      e8:	e7ec      	b.n	c4 <__coalesce_back__.part.0+0x64>
      ea:	bf00      	nop
      ec:	20000020 	.word	0x20000020

000000f0 <__coalesce_front__.part.0>:
      f0:	b538      	push	{r3, r4, r5, lr}
      f2:	6845      	ldr	r5, [r0, #4]
      f4:	4604      	mov	r4, r0
      f6:	686b      	ldr	r3, [r5, #4]
      f8:	b11b      	cbz	r3, 102 <__coalesce_front__.part.0+0x12>
      fa:	686b      	ldr	r3, [r5, #4]
      fc:	7a9b      	ldrb	r3, [r3, #10]
      fe:	07da      	lsls	r2, r3, #31
     100:	d416      	bmi.n	130 <__coalesce_front__.part.0+0x40>
     102:	491c      	ldr	r1, [pc, #112]	; (174 <__coalesce_front__.part.0+0x84>)
     104:	6863      	ldr	r3, [r4, #4]
     106:	2200      	movs	r2, #0
     108:	8918      	ldrh	r0, [r3, #8]
     10a:	8923      	ldrh	r3, [r4, #8]
     10c:	4403      	add	r3, r0
     10e:	b29b      	uxth	r3, r3
     110:	8123      	strh	r3, [r4, #8]
     112:	6863      	ldr	r3, [r4, #4]
     114:	811a      	strh	r2, [r3, #8]
     116:	7aa3      	ldrb	r3, [r4, #10]
     118:	6862      	ldr	r2, [r4, #4]
     11a:	091b      	lsrs	r3, r3, #4
     11c:	6850      	ldr	r0, [r2, #4]
     11e:	f003 0304 	and.w	r3, r3, #4
     122:	f831 2013 	ldrh.w	r2, [r1, r3, lsl #1]
     126:	3a01      	subs	r2, #1
     128:	f821 2013 	strh.w	r2, [r1, r3, lsl #1]
     12c:	6060      	str	r0, [r4, #4]
     12e:	bd38      	pop	{r3, r4, r5, pc}
     130:	6868      	ldr	r0, [r5, #4]
     132:	6843      	ldr	r3, [r0, #4]
     134:	b11b      	cbz	r3, 13e <__coalesce_front__.part.0+0x4e>
     136:	6843      	ldr	r3, [r0, #4]
     138:	7a9b      	ldrb	r3, [r3, #10]
     13a:	07db      	lsls	r3, r3, #31
     13c:	d416      	bmi.n	16c <__coalesce_front__.part.0+0x7c>
     13e:	686b      	ldr	r3, [r5, #4]
     140:	2200      	movs	r2, #0
     142:	490c      	ldr	r1, [pc, #48]	; (174 <__coalesce_front__.part.0+0x84>)
     144:	8918      	ldrh	r0, [r3, #8]
     146:	892b      	ldrh	r3, [r5, #8]
     148:	4403      	add	r3, r0
     14a:	b29b      	uxth	r3, r3
     14c:	812b      	strh	r3, [r5, #8]
     14e:	686b      	ldr	r3, [r5, #4]
     150:	811a      	strh	r2, [r3, #8]
     152:	7aab      	ldrb	r3, [r5, #10]
     154:	091b      	lsrs	r3, r3, #4
     156:	f003 0304 	and.w	r3, r3, #4
     15a:	f831 2013 	ldrh.w	r2, [r1, r3, lsl #1]
     15e:	3a01      	subs	r2, #1
     160:	f821 2013 	strh.w	r2, [r1, r3, lsl #1]
     164:	686b      	ldr	r3, [r5, #4]
     166:	685b      	ldr	r3, [r3, #4]
     168:	606b      	str	r3, [r5, #4]
     16a:	e7cb      	b.n	104 <__coalesce_front__.part.0+0x14>
     16c:	f7ff ffc0 	bl	f0 <__coalesce_front__.part.0>
     170:	e7e5      	b.n	13e <__coalesce_front__.part.0+0x4e>
     172:	bf00      	nop
     174:	20000020 	.word	0x20000020

00000178 <malloc_>:
     178:	b158      	cbz	r0, 192 <malloc_+0x1a>
     17a:	4a07      	ldr	r2, [pc, #28]	; (198 <malloc_+0x20>)
     17c:	6a13      	ldr	r3, [r2, #32]
     17e:	68d9      	ldr	r1, [r3, #12]
     180:	6253      	str	r3, [r2, #36]	; 0x24
     182:	b131      	cbz	r1, 192 <malloc_+0x1a>
     184:	691a      	ldr	r2, [r3, #16]
     186:	f412 0f7f 	tst.w	r2, #16711680	; 0xff0000
     18a:	d000      	beq.n	18e <malloc_+0x16>
     18c:	68da      	ldr	r2, [r3, #12]
     18e:	685b      	ldr	r3, [r3, #4]
     190:	e7f8      	b.n	184 <malloc_+0xc>
     192:	2000      	movs	r0, #0
     194:	4770      	bx	lr
     196:	bf00      	nop
     198:	20000020 	.word	0x20000020

0000019c <free>:
     19c:	b570      	push	{r4, r5, r6, lr}
     19e:	f810 3c01 	ldrb.w	r3, [r0, #-1]
     1a2:	4604      	mov	r4, r0
     1a4:	4d4b      	ldr	r5, [pc, #300]	; (2d4 <free+0x138>)
     1a6:	f043 0301 	orr.w	r3, r3, #1
     1aa:	f800 3c01 	strb.w	r3, [r0, #-1]
     1ae:	f810 3c01 	ldrb.w	r3, [r0, #-1]
     1b2:	091b      	lsrs	r3, r3, #4
     1b4:	f003 0304 	and.w	r3, r3, #4
     1b8:	f835 2013 	ldrh.w	r2, [r5, r3, lsl #1]
     1bc:	eb05 0143 	add.w	r1, r5, r3, lsl #1
     1c0:	3201      	adds	r2, #1
     1c2:	f825 2013 	strh.w	r2, [r5, r3, lsl #1]
     1c6:	f850 2c07 	ldr.w	r2, [r0, #-7]
     1ca:	8d0b      	ldrh	r3, [r1, #40]	; 0x28
     1cc:	7a92      	ldrb	r2, [r2, #10]
     1ce:	3b01      	subs	r3, #1
     1d0:	07d2      	lsls	r2, r2, #31
     1d2:	850b      	strh	r3, [r1, #40]	; 0x28
     1d4:	d507      	bpl.n	1e6 <free+0x4a>
     1d6:	f850 3c07 	ldr.w	r3, [r0, #-7]
     1da:	b123      	cbz	r3, 1e6 <free+0x4a>
     1dc:	f850 3c07 	ldr.w	r3, [r0, #-7]
     1e0:	7a9b      	ldrb	r3, [r3, #10]
     1e2:	07db      	lsls	r3, r3, #31
     1e4:	d430      	bmi.n	248 <free+0xac>
     1e6:	f854 3c0b 	ldr.w	r3, [r4, #-11]
     1ea:	7a9b      	ldrb	r3, [r3, #10]
     1ec:	07d8      	lsls	r0, r3, #31
     1ee:	d507      	bpl.n	200 <free+0x64>
     1f0:	f854 3c0b 	ldr.w	r3, [r4, #-11]
     1f4:	b123      	cbz	r3, 200 <free+0x64>
     1f6:	f854 3c0b 	ldr.w	r3, [r4, #-11]
     1fa:	7a9b      	ldrb	r3, [r3, #10]
     1fc:	07d9      	lsls	r1, r3, #31
     1fe:	d400      	bmi.n	202 <free+0x66>
     200:	bd70      	pop	{r4, r5, r6, pc}
     202:	f834 1c03 	ldrh.w	r1, [r4, #-3]
     206:	f854 2c0b 	ldr.w	r2, [r4, #-11]
     20a:	8913      	ldrh	r3, [r2, #8]
     20c:	440b      	add	r3, r1
     20e:	2100      	movs	r1, #0
     210:	b29b      	uxth	r3, r3
     212:	8113      	strh	r3, [r2, #8]
     214:	f824 1c03 	strh.w	r1, [r4, #-3]
     218:	f854 3c0b 	ldr.w	r3, [r4, #-11]
     21c:	f854 2c07 	ldr.w	r2, [r4, #-7]
     220:	605a      	str	r2, [r3, #4]
     222:	f854 6c0b 	ldr.w	r6, [r4, #-11]
     226:	6833      	ldr	r3, [r6, #0]
     228:	b11b      	cbz	r3, 232 <free+0x96>
     22a:	6833      	ldr	r3, [r6, #0]
     22c:	7a9b      	ldrb	r3, [r3, #10]
     22e:	07da      	lsls	r2, r3, #31
     230:	d42f      	bmi.n	292 <free+0xf6>
     232:	f814 3c01 	ldrb.w	r3, [r4, #-1]
     236:	091b      	lsrs	r3, r3, #4
     238:	f003 0304 	and.w	r3, r3, #4
     23c:	f835 2013 	ldrh.w	r2, [r5, r3, lsl #1]
     240:	3a01      	subs	r2, #1
     242:	f825 2013 	strh.w	r2, [r5, r3, lsl #1]
     246:	bd70      	pop	{r4, r5, r6, pc}
     248:	f850 0c07 	ldr.w	r0, [r0, #-7]
     24c:	6843      	ldr	r3, [r0, #4]
     24e:	b11b      	cbz	r3, 258 <free+0xbc>
     250:	6843      	ldr	r3, [r0, #4]
     252:	7a9b      	ldrb	r3, [r3, #10]
     254:	07de      	lsls	r6, r3, #31
     256:	d437      	bmi.n	2c8 <free+0x12c>
     258:	f854 3c07 	ldr.w	r3, [r4, #-7]
     25c:	2200      	movs	r2, #0
     25e:	8919      	ldrh	r1, [r3, #8]
     260:	f834 3c03 	ldrh.w	r3, [r4, #-3]
     264:	440b      	add	r3, r1
     266:	b29b      	uxth	r3, r3
     268:	f824 3c03 	strh.w	r3, [r4, #-3]
     26c:	f854 3c07 	ldr.w	r3, [r4, #-7]
     270:	811a      	strh	r2, [r3, #8]
     272:	f814 3c01 	ldrb.w	r3, [r4, #-1]
     276:	f854 2c07 	ldr.w	r2, [r4, #-7]
     27a:	091b      	lsrs	r3, r3, #4
     27c:	6851      	ldr	r1, [r2, #4]
     27e:	f003 0304 	and.w	r3, r3, #4
     282:	f835 2013 	ldrh.w	r2, [r5, r3, lsl #1]
     286:	3a01      	subs	r2, #1
     288:	f825 2013 	strh.w	r2, [r5, r3, lsl #1]
     28c:	f844 1c07 	str.w	r1, [r4, #-7]
     290:	e7a9      	b.n	1e6 <free+0x4a>
     292:	8930      	ldrh	r0, [r6, #8]
     294:	6832      	ldr	r2, [r6, #0]
     296:	8913      	ldrh	r3, [r2, #8]
     298:	4403      	add	r3, r0
     29a:	b29b      	uxth	r3, r3
     29c:	8113      	strh	r3, [r2, #8]
     29e:	8131      	strh	r1, [r6, #8]
     2a0:	6833      	ldr	r3, [r6, #0]
     2a2:	6872      	ldr	r2, [r6, #4]
     2a4:	605a      	str	r2, [r3, #4]
     2a6:	6830      	ldr	r0, [r6, #0]
     2a8:	6803      	ldr	r3, [r0, #0]
     2aa:	b11b      	cbz	r3, 2b4 <free+0x118>
     2ac:	6803      	ldr	r3, [r0, #0]
     2ae:	7a9b      	ldrb	r3, [r3, #10]
     2b0:	07db      	lsls	r3, r3, #31
     2b2:	d40c      	bmi.n	2ce <free+0x132>
     2b4:	7ab3      	ldrb	r3, [r6, #10]
     2b6:	091b      	lsrs	r3, r3, #4
     2b8:	f003 0304 	and.w	r3, r3, #4
     2bc:	f835 2013 	ldrh.w	r2, [r5, r3, lsl #1]
     2c0:	3a01      	subs	r2, #1
     2c2:	f825 2013 	strh.w	r2, [r5, r3, lsl #1]
     2c6:	e7b4      	b.n	232 <free+0x96>
     2c8:	f7ff ff12 	bl	f0 <__coalesce_front__.part.0>
     2cc:	e7c4      	b.n	258 <free+0xbc>
     2ce:	f7ff fec7 	bl	60 <__coalesce_back__.part.0>
     2d2:	e7ef      	b.n	2b4 <free+0x118>
     2d4:	20000020 	.word	0x20000020

000002d8 <__gen_single_heapg__>:
     2d8:	4b16      	ldr	r3, [pc, #88]	; (334 <__gen_single_heapg__+0x5c>)
     2da:	6a5a      	ldr	r2, [r3, #36]	; 0x24
     2dc:	b410      	push	{r4}
     2de:	b322      	cbz	r2, 32a <__gen_single_heapg__+0x52>
     2e0:	6050      	str	r0, [r2, #4]
     2e2:	6002      	str	r2, [r0, #0]
     2e4:	f04f 2480 	mov.w	r4, #2147516416	; 0x80008000
     2e8:	2200      	movs	r2, #0
     2ea:	60c4      	str	r4, [r0, #12]
     2ec:	f44f 3480 	mov.w	r4, #65536	; 0x10000
     2f0:	6104      	str	r4, [r0, #16]
     2f2:	f100 0422 	add.w	r4, r0, #34	; 0x22
     2f6:	7201      	strb	r1, [r0, #8]
     2f8:	64dc      	str	r4, [r3, #76]	; 0x4c
     2fa:	f647 73e4 	movw	r3, #32740	; 0x7fe4
     2fe:	8543      	strh	r3, [r0, #42]	; 0x2a
     300:	f8c0 2022 	str.w	r2, [r0, #34]	; 0x22
     304:	f8c0 2026 	str.w	r2, [r0, #38]	; 0x26
     308:	f890 302c 	ldrb.w	r3, [r0, #44]	; 0x2c
     30c:	f043 0301 	orr.w	r3, r3, #1
     310:	f880 302c 	strb.w	r3, [r0, #44]	; 0x2c
     314:	f890 302c 	ldrb.w	r3, [r0, #44]	; 0x2c
     318:	f003 0301 	and.w	r3, r3, #1
     31c:	ea43 1101 	orr.w	r1, r3, r1, lsl #4
     320:	b2c9      	uxtb	r1, r1
     322:	f880 102c 	strb.w	r1, [r0, #44]	; 0x2c
     326:	bc10      	pop	{r4}
     328:	4770      	bx	lr
     32a:	6218      	str	r0, [r3, #32]
     32c:	6498      	str	r0, [r3, #72]	; 0x48
     32e:	6258      	str	r0, [r3, #36]	; 0x24
     330:	e7d8      	b.n	2e4 <__gen_single_heapg__+0xc>
     332:	bf00      	nop
     334:	20000020 	.word	0x20000020

00000338 <__init_ram_heap__>:
     338:	2100      	movs	r1, #0
     33a:	4a28      	ldr	r2, [pc, #160]	; (3dc <__init_ram_heap__+0xa4>)
     33c:	e92d 41f0 	stmdb	sp!, {r4, r5, r6, r7, r8, lr}
     340:	468c      	mov	ip, r1
     342:	4d27      	ldr	r5, [pc, #156]	; (3e0 <__init_ram_heap__+0xa8>)
     344:	4c27      	ldr	r4, [pc, #156]	; (3e4 <__init_ram_heap__+0xac>)
     346:	f04f 2780 	mov.w	r7, #2147516416	; 0x80008000
     34a:	f44f 3680 	mov.w	r6, #65536	; 0x10000
     34e:	f647 7ee4 	movw	lr, #32740	; 0x7fe4
     352:	e004      	b.n	35e <__init_ram_heap__+0x26>
     354:	3101      	adds	r1, #1
     356:	f502 4200 	add.w	r2, r2, #32768	; 0x8000
     35a:	2910      	cmp	r1, #16
     35c:	d035      	beq.n	3ca <__init_ram_heap__+0x92>
     35e:	6c63      	ldr	r3, [r4, #68]	; 0x44
     360:	0048      	lsls	r0, r1, #1
     362:	fa5f f881 	uxtb.w	r8, r1
     366:	40c3      	lsrs	r3, r0
     368:	f003 0303 	and.w	r3, r3, #3
     36c:	2b02      	cmp	r3, #2
     36e:	d1f1      	bne.n	354 <__init_ram_heap__+0x1c>
     370:	6a6b      	ldr	r3, [r5, #36]	; 0x24
     372:	b373      	cbz	r3, 3d2 <__init_ram_heap__+0x9a>
     374:	605a      	str	r2, [r3, #4]
     376:	6013      	str	r3, [r2, #0]
     378:	60d7      	str	r7, [r2, #12]
     37a:	3101      	adds	r1, #1
     37c:	6116      	str	r6, [r2, #16]
     37e:	f102 0022 	add.w	r0, r2, #34	; 0x22
     382:	f882 8008 	strb.w	r8, [r2, #8]
     386:	2910      	cmp	r1, #16
     388:	f8a2 e02a 	strh.w	lr, [r2, #42]	; 0x2a
     38c:	8c53      	ldrh	r3, [r2, #34]	; 0x22
     38e:	f8a2 c022 	strh.w	ip, [r2, #34]	; 0x22
     392:	8c93      	ldrh	r3, [r2, #36]	; 0x24
     394:	f8a2 c024 	strh.w	ip, [r2, #36]	; 0x24
     398:	8cd3      	ldrh	r3, [r2, #38]	; 0x26
     39a:	f8a2 c026 	strh.w	ip, [r2, #38]	; 0x26
     39e:	8d13      	ldrh	r3, [r2, #40]	; 0x28
     3a0:	f8a2 c028 	strh.w	ip, [r2, #40]	; 0x28
     3a4:	f892 302c 	ldrb.w	r3, [r2, #44]	; 0x2c
     3a8:	64e8      	str	r0, [r5, #76]	; 0x4c
     3aa:	f043 0301 	orr.w	r3, r3, #1
     3ae:	f882 302c 	strb.w	r3, [r2, #44]	; 0x2c
     3b2:	f892 302c 	ldrb.w	r3, [r2, #44]	; 0x2c
     3b6:	f003 0301 	and.w	r3, r3, #1
     3ba:	ea43 1308 	orr.w	r3, r3, r8, lsl #4
     3be:	b2db      	uxtb	r3, r3
     3c0:	f882 302c 	strb.w	r3, [r2, #44]	; 0x2c
     3c4:	f502 4200 	add.w	r2, r2, #32768	; 0x8000
     3c8:	d1c9      	bne.n	35e <__init_ram_heap__+0x26>
     3ca:	6cab      	ldr	r3, [r5, #72]	; 0x48
     3cc:	626b      	str	r3, [r5, #36]	; 0x24
     3ce:	e8bd 81f0 	ldmia.w	sp!, {r4, r5, r6, r7, r8, pc}
     3d2:	622a      	str	r2, [r5, #32]
     3d4:	64aa      	str	r2, [r5, #72]	; 0x48
     3d6:	626a      	str	r2, [r5, #36]	; 0x24
     3d8:	e7ce      	b.n	378 <__init_ram_heap__+0x40>
     3da:	bf00      	nop
     3dc:	20280000 	.word	0x20280000
     3e0:	20000020 	.word	0x20000020
     3e4:	400ac000 	.word	0x400ac000

000003e8 <__find_mem__>:
     3e8:	4603      	mov	r3, r0
     3ea:	2000      	movs	r0, #0
     3ec:	68db      	ldr	r3, [r3, #12]
     3ee:	4770      	bx	lr

000003f0 <__compactation__>:
     3f0:	f8b0 315c 	ldrh.w	r3, [r0, #348]	; 0x15c
     3f4:	b29b      	uxth	r3, r3
     3f6:	e92d 41f0 	stmdb	sp!, {r4, r5, r6, r7, r8, lr}
     3fa:	eb03 0343 	add.w	r3, r3, r3, lsl #1
     3fe:	f500 74aa 	add.w	r4, r0, #340	; 0x154
     402:	f500 2520 	add.w	r5, r0, #655360	; 0xa0000
     406:	b082      	sub	sp, #8
     408:	eb04 0383 	add.w	r3, r4, r3, lsl #2
     40c:	3384      	adds	r3, #132	; 0x84
     40e:	429d      	cmp	r5, r3
     410:	d043      	beq.n	49a <__compactation__+0xaa>
     412:	2700      	movs	r7, #0
     414:	4e54      	ldr	r6, [pc, #336]	; (568 <__compactation__+0x178>)
     416:	7aa3      	ldrb	r3, [r4, #10]
     418:	07da      	lsls	r2, r3, #31
     41a:	d52f      	bpl.n	47c <__compactation__+0x8c>
     41c:	6863      	ldr	r3, [r4, #4]
     41e:	b11b      	cbz	r3, 428 <__compactation__+0x38>
     420:	6863      	ldr	r3, [r4, #4]
     422:	7a9b      	ldrb	r3, [r3, #10]
     424:	07db      	lsls	r3, r3, #31
     426:	d43b      	bmi.n	4a0 <__compactation__+0xb0>
     428:	8923      	ldrh	r3, [r4, #8]
     42a:	f104 01cc 	add.w	r1, r4, #204	; 0xcc
     42e:	6862      	ldr	r2, [r4, #4]
     430:	b29b      	uxth	r3, r3
     432:	8912      	ldrh	r2, [r2, #8]
     434:	b292      	uxth	r2, r2
     436:	8122      	strh	r2, [r4, #8]
     438:	6862      	ldr	r2, [r4, #4]
     43a:	8113      	strh	r3, [r2, #8]
     43c:	6862      	ldr	r2, [r4, #4]
     43e:	6860      	ldr	r0, [r4, #4]
     440:	6863      	ldr	r3, [r4, #4]
     442:	32cc      	adds	r2, #204	; 0xcc
     444:	891b      	ldrh	r3, [r3, #8]
     446:	b29b      	uxth	r3, r3
     448:	eb03 0343 	add.w	r3, r3, r3, lsl #1
     44c:	eb00 0083 	add.w	r0, r0, r3, lsl #2
     450:	30cc      	adds	r0, #204	; 0xcc
     452:	4282      	cmp	r2, r0
     454:	d006      	beq.n	464 <__compactation__+0x74>
     456:	f812 3b01 	ldrb.w	r3, [r2], #1
     45a:	b2db      	uxtb	r3, r3
     45c:	4290      	cmp	r0, r2
     45e:	f801 3b01 	strb.w	r3, [r1], #1
     462:	d1f8      	bne.n	456 <__compactation__+0x66>
     464:	6822      	ldr	r2, [r4, #0]
     466:	6863      	ldr	r3, [r4, #4]
     468:	681b      	ldr	r3, [r3, #0]
     46a:	6023      	str	r3, [r4, #0]
     46c:	6863      	ldr	r3, [r4, #4]
     46e:	601a      	str	r2, [r3, #0]
     470:	6862      	ldr	r2, [r4, #4]
     472:	6863      	ldr	r3, [r4, #4]
     474:	685b      	ldr	r3, [r3, #4]
     476:	6063      	str	r3, [r4, #4]
     478:	6863      	ldr	r3, [r4, #4]
     47a:	605a      	str	r2, [r3, #4]
     47c:	8923      	ldrh	r3, [r4, #8]
     47e:	b29b      	uxth	r3, r3
     480:	eb03 0343 	add.w	r3, r3, r3, lsl #1
     484:	eb04 0483 	add.w	r4, r4, r3, lsl #2
     488:	8923      	ldrh	r3, [r4, #8]
     48a:	b29b      	uxth	r3, r3
     48c:	eb03 0343 	add.w	r3, r3, r3, lsl #1
     490:	eb04 0383 	add.w	r3, r4, r3, lsl #2
     494:	3384      	adds	r3, #132	; 0x84
     496:	429d      	cmp	r5, r3
     498:	d1bd      	bne.n	416 <__compactation__+0x26>
     49a:	b002      	add	sp, #8
     49c:	e8bd 81f0 	ldmia.w	sp!, {r4, r5, r6, r7, r8, pc}
     4a0:	6863      	ldr	r3, [r4, #4]
     4a2:	685a      	ldr	r2, [r3, #4]
     4a4:	b11a      	cbz	r2, 4ae <__compactation__+0xbe>
     4a6:	685a      	ldr	r2, [r3, #4]
     4a8:	7a92      	ldrb	r2, [r2, #10]
     4aa:	07d0      	lsls	r0, r2, #31
     4ac:	d414      	bmi.n	4d8 <__compactation__+0xe8>
     4ae:	6863      	ldr	r3, [r4, #4]
     4b0:	891a      	ldrh	r2, [r3, #8]
     4b2:	8923      	ldrh	r3, [r4, #8]
     4b4:	4413      	add	r3, r2
     4b6:	b29b      	uxth	r3, r3
     4b8:	8123      	strh	r3, [r4, #8]
     4ba:	6863      	ldr	r3, [r4, #4]
     4bc:	811f      	strh	r7, [r3, #8]
     4be:	7aa3      	ldrb	r3, [r4, #10]
     4c0:	091b      	lsrs	r3, r3, #4
     4c2:	f003 0304 	and.w	r3, r3, #4
     4c6:	f836 2013 	ldrh.w	r2, [r6, r3, lsl #1]
     4ca:	3a01      	subs	r2, #1
     4cc:	f826 2013 	strh.w	r2, [r6, r3, lsl #1]
     4d0:	6863      	ldr	r3, [r4, #4]
     4d2:	685b      	ldr	r3, [r3, #4]
     4d4:	6063      	str	r3, [r4, #4]
     4d6:	e7a7      	b.n	428 <__compactation__+0x38>
     4d8:	f8d3 8004 	ldr.w	r8, [r3, #4]
     4dc:	f8d8 1004 	ldr.w	r1, [r8, #4]
     4e0:	b121      	cbz	r1, 4ec <__compactation__+0xfc>
     4e2:	f8d8 1004 	ldr.w	r1, [r8, #4]
     4e6:	7a89      	ldrb	r1, [r1, #10]
     4e8:	07c9      	lsls	r1, r1, #31
     4ea:	d414      	bmi.n	516 <__compactation__+0x126>
     4ec:	685a      	ldr	r2, [r3, #4]
     4ee:	8911      	ldrh	r1, [r2, #8]
     4f0:	891a      	ldrh	r2, [r3, #8]
     4f2:	440a      	add	r2, r1
     4f4:	b292      	uxth	r2, r2
     4f6:	811a      	strh	r2, [r3, #8]
     4f8:	685a      	ldr	r2, [r3, #4]
     4fa:	8117      	strh	r7, [r2, #8]
     4fc:	7a9a      	ldrb	r2, [r3, #10]
     4fe:	6859      	ldr	r1, [r3, #4]
     500:	0912      	lsrs	r2, r2, #4
     502:	6848      	ldr	r0, [r1, #4]
     504:	f002 0204 	and.w	r2, r2, #4
     508:	f836 1012 	ldrh.w	r1, [r6, r2, lsl #1]
     50c:	3901      	subs	r1, #1
     50e:	f826 1012 	strh.w	r1, [r6, r2, lsl #1]
     512:	6058      	str	r0, [r3, #4]
     514:	e7cb      	b.n	4ae <__compactation__+0xbe>
     516:	f8d8 0004 	ldr.w	r0, [r8, #4]
     51a:	6841      	ldr	r1, [r0, #4]
     51c:	b119      	cbz	r1, 526 <__compactation__+0x136>
     51e:	6841      	ldr	r1, [r0, #4]
     520:	7a89      	ldrb	r1, [r1, #10]
     522:	07ca      	lsls	r2, r1, #31
     524:	d41b      	bmi.n	55e <__compactation__+0x16e>
     526:	f8d8 1004 	ldr.w	r1, [r8, #4]
     52a:	8908      	ldrh	r0, [r1, #8]
     52c:	f8b8 1008 	ldrh.w	r1, [r8, #8]
     530:	4401      	add	r1, r0
     532:	b289      	uxth	r1, r1
     534:	f8a8 1008 	strh.w	r1, [r8, #8]
     538:	f8d8 1004 	ldr.w	r1, [r8, #4]
     53c:	810f      	strh	r7, [r1, #8]
     53e:	f898 100a 	ldrb.w	r1, [r8, #10]
     542:	f8d8 0004 	ldr.w	r0, [r8, #4]
     546:	0909      	lsrs	r1, r1, #4
     548:	6842      	ldr	r2, [r0, #4]
     54a:	f001 0104 	and.w	r1, r1, #4
     54e:	f836 0011 	ldrh.w	r0, [r6, r1, lsl #1]
     552:	3801      	subs	r0, #1
     554:	f826 0011 	strh.w	r0, [r6, r1, lsl #1]
     558:	f8c8 2004 	str.w	r2, [r8, #4]
     55c:	e7c6      	b.n	4ec <__compactation__+0xfc>
     55e:	9301      	str	r3, [sp, #4]
     560:	f7ff fdc6 	bl	f0 <__coalesce_front__.part.0>
     564:	9b01      	ldr	r3, [sp, #4]
     566:	e7de      	b.n	526 <__compactation__+0x136>
     568:	20000020 	.word	0x20000020

0000056c <__remove_block__>:
     56c:	b570      	push	{r4, r5, r6, lr}
     56e:	7a83      	ldrb	r3, [r0, #10]
     570:	4604      	mov	r4, r0
     572:	4d40      	ldr	r5, [pc, #256]	; (674 <__remove_block__+0x108>)
     574:	f043 0301 	orr.w	r3, r3, #1
     578:	7283      	strb	r3, [r0, #10]
     57a:	7a83      	ldrb	r3, [r0, #10]
     57c:	091b      	lsrs	r3, r3, #4
     57e:	f003 0304 	and.w	r3, r3, #4
     582:	f835 2013 	ldrh.w	r2, [r5, r3, lsl #1]
     586:	eb05 0143 	add.w	r1, r5, r3, lsl #1
     58a:	3201      	adds	r2, #1
     58c:	f825 2013 	strh.w	r2, [r5, r3, lsl #1]
     590:	6842      	ldr	r2, [r0, #4]
     592:	8d0b      	ldrh	r3, [r1, #40]	; 0x28
     594:	7a92      	ldrb	r2, [r2, #10]
     596:	3b01      	subs	r3, #1
     598:	07d2      	lsls	r2, r2, #31
     59a:	850b      	strh	r3, [r1, #40]	; 0x28
     59c:	d505      	bpl.n	5aa <__remove_block__+0x3e>
     59e:	6843      	ldr	r3, [r0, #4]
     5a0:	b11b      	cbz	r3, 5aa <__remove_block__+0x3e>
     5a2:	6843      	ldr	r3, [r0, #4]
     5a4:	7a9b      	ldrb	r3, [r3, #10]
     5a6:	07db      	lsls	r3, r3, #31
     5a8:	d426      	bmi.n	5f8 <__remove_block__+0x8c>
     5aa:	6823      	ldr	r3, [r4, #0]
     5ac:	7a9b      	ldrb	r3, [r3, #10]
     5ae:	07d8      	lsls	r0, r3, #31
     5b0:	d505      	bpl.n	5be <__remove_block__+0x52>
     5b2:	6823      	ldr	r3, [r4, #0]
     5b4:	b11b      	cbz	r3, 5be <__remove_block__+0x52>
     5b6:	6823      	ldr	r3, [r4, #0]
     5b8:	7a9b      	ldrb	r3, [r3, #10]
     5ba:	07d9      	lsls	r1, r3, #31
     5bc:	d400      	bmi.n	5c0 <__remove_block__+0x54>
     5be:	bd70      	pop	{r4, r5, r6, pc}
     5c0:	8921      	ldrh	r1, [r4, #8]
     5c2:	6822      	ldr	r2, [r4, #0]
     5c4:	8913      	ldrh	r3, [r2, #8]
     5c6:	440b      	add	r3, r1
     5c8:	2100      	movs	r1, #0
     5ca:	b29b      	uxth	r3, r3
     5cc:	8113      	strh	r3, [r2, #8]
     5ce:	8121      	strh	r1, [r4, #8]
     5d0:	6823      	ldr	r3, [r4, #0]
     5d2:	6862      	ldr	r2, [r4, #4]
     5d4:	605a      	str	r2, [r3, #4]
     5d6:	6826      	ldr	r6, [r4, #0]
     5d8:	6833      	ldr	r3, [r6, #0]
     5da:	b11b      	cbz	r3, 5e4 <__remove_block__+0x78>
     5dc:	6833      	ldr	r3, [r6, #0]
     5de:	7a9b      	ldrb	r3, [r3, #10]
     5e0:	07da      	lsls	r2, r3, #31
     5e2:	d426      	bmi.n	632 <__remove_block__+0xc6>
     5e4:	7aa3      	ldrb	r3, [r4, #10]
     5e6:	091b      	lsrs	r3, r3, #4
     5e8:	f003 0304 	and.w	r3, r3, #4
     5ec:	f835 2013 	ldrh.w	r2, [r5, r3, lsl #1]
     5f0:	3a01      	subs	r2, #1
     5f2:	f825 2013 	strh.w	r2, [r5, r3, lsl #1]
     5f6:	bd70      	pop	{r4, r5, r6, pc}
     5f8:	6840      	ldr	r0, [r0, #4]
     5fa:	6843      	ldr	r3, [r0, #4]
     5fc:	b11b      	cbz	r3, 606 <__remove_block__+0x9a>
     5fe:	6843      	ldr	r3, [r0, #4]
     600:	7a9b      	ldrb	r3, [r3, #10]
     602:	07de      	lsls	r6, r3, #31
     604:	d430      	bmi.n	668 <__remove_block__+0xfc>
     606:	6863      	ldr	r3, [r4, #4]
     608:	2200      	movs	r2, #0
     60a:	8919      	ldrh	r1, [r3, #8]
     60c:	8923      	ldrh	r3, [r4, #8]
     60e:	440b      	add	r3, r1
     610:	b29b      	uxth	r3, r3
     612:	8123      	strh	r3, [r4, #8]
     614:	6863      	ldr	r3, [r4, #4]
     616:	811a      	strh	r2, [r3, #8]
     618:	7aa3      	ldrb	r3, [r4, #10]
     61a:	6862      	ldr	r2, [r4, #4]
     61c:	091b      	lsrs	r3, r3, #4
     61e:	6851      	ldr	r1, [r2, #4]
     620:	f003 0304 	and.w	r3, r3, #4
     624:	f835 2013 	ldrh.w	r2, [r5, r3, lsl #1]
     628:	3a01      	subs	r2, #1
     62a:	f825 2013 	strh.w	r2, [r5, r3, lsl #1]
     62e:	6061      	str	r1, [r4, #4]
     630:	e7bb      	b.n	5aa <__remove_block__+0x3e>
     632:	8930      	ldrh	r0, [r6, #8]
     634:	6832      	ldr	r2, [r6, #0]
     636:	8913      	ldrh	r3, [r2, #8]
     638:	4403      	add	r3, r0
     63a:	b29b      	uxth	r3, r3
     63c:	8113      	strh	r3, [r2, #8]
     63e:	8131      	strh	r1, [r6, #8]
     640:	6833      	ldr	r3, [r6, #0]
     642:	6872      	ldr	r2, [r6, #4]
     644:	605a      	str	r2, [r3, #4]
     646:	6830      	ldr	r0, [r6, #0]
     648:	6803      	ldr	r3, [r0, #0]
     64a:	b11b      	cbz	r3, 654 <__remove_block__+0xe8>
     64c:	6803      	ldr	r3, [r0, #0]
     64e:	7a9b      	ldrb	r3, [r3, #10]
     650:	07db      	lsls	r3, r3, #31
     652:	d40c      	bmi.n	66e <__remove_block__+0x102>
     654:	7ab3      	ldrb	r3, [r6, #10]
     656:	091b      	lsrs	r3, r3, #4
     658:	f003 0304 	and.w	r3, r3, #4
     65c:	f835 2013 	ldrh.w	r2, [r5, r3, lsl #1]
     660:	3a01      	subs	r2, #1
     662:	f825 2013 	strh.w	r2, [r5, r3, lsl #1]
     666:	e7bd      	b.n	5e4 <__remove_block__+0x78>
     668:	f7ff fd42 	bl	f0 <__coalesce_front__.part.0>
     66c:	e7cb      	b.n	606 <__remove_block__+0x9a>
     66e:	f7ff fcf7 	bl	60 <__coalesce_back__.part.0>
     672:	e7ef      	b.n	654 <__remove_block__+0xe8>
     674:	20000020 	.word	0x20000020

00000678 <__coalesce__>:
     678:	b538      	push	{r3, r4, r5, lr}
     67a:	6843      	ldr	r3, [r0, #4]
     67c:	4604      	mov	r4, r0
     67e:	7a9b      	ldrb	r3, [r3, #10]
     680:	07da      	lsls	r2, r3, #31
     682:	d505      	bpl.n	690 <__coalesce__+0x18>
     684:	6843      	ldr	r3, [r0, #4]
     686:	b11b      	cbz	r3, 690 <__coalesce__+0x18>
     688:	6843      	ldr	r3, [r0, #4]
     68a:	7a9b      	ldrb	r3, [r3, #10]
     68c:	07db      	lsls	r3, r3, #31
     68e:	d427      	bmi.n	6e0 <__coalesce__+0x68>
     690:	6823      	ldr	r3, [r4, #0]
     692:	7a9b      	ldrb	r3, [r3, #10]
     694:	07d8      	lsls	r0, r3, #31
     696:	d505      	bpl.n	6a4 <__coalesce__+0x2c>
     698:	6823      	ldr	r3, [r4, #0]
     69a:	b11b      	cbz	r3, 6a4 <__coalesce__+0x2c>
     69c:	6823      	ldr	r3, [r4, #0]
     69e:	7a9b      	ldrb	r3, [r3, #10]
     6a0:	07d9      	lsls	r1, r3, #31
     6a2:	d400      	bmi.n	6a6 <__coalesce__+0x2e>
     6a4:	bd38      	pop	{r3, r4, r5, pc}
     6a6:	8920      	ldrh	r0, [r4, #8]
     6a8:	2100      	movs	r1, #0
     6aa:	6822      	ldr	r2, [r4, #0]
     6ac:	8913      	ldrh	r3, [r2, #8]
     6ae:	4403      	add	r3, r0
     6b0:	b29b      	uxth	r3, r3
     6b2:	8113      	strh	r3, [r2, #8]
     6b4:	8121      	strh	r1, [r4, #8]
     6b6:	6823      	ldr	r3, [r4, #0]
     6b8:	6862      	ldr	r2, [r4, #4]
     6ba:	605a      	str	r2, [r3, #4]
     6bc:	6825      	ldr	r5, [r4, #0]
     6be:	682b      	ldr	r3, [r5, #0]
     6c0:	b11b      	cbz	r3, 6ca <__coalesce__+0x52>
     6c2:	682b      	ldr	r3, [r5, #0]
     6c4:	7a9b      	ldrb	r3, [r3, #10]
     6c6:	07da      	lsls	r2, r3, #31
     6c8:	d428      	bmi.n	71c <__coalesce__+0xa4>
     6ca:	4a25      	ldr	r2, [pc, #148]	; (760 <__coalesce__+0xe8>)
     6cc:	7aa3      	ldrb	r3, [r4, #10]
     6ce:	091b      	lsrs	r3, r3, #4
     6d0:	f003 0304 	and.w	r3, r3, #4
     6d4:	f832 1013 	ldrh.w	r1, [r2, r3, lsl #1]
     6d8:	3901      	subs	r1, #1
     6da:	f822 1013 	strh.w	r1, [r2, r3, lsl #1]
     6de:	bd38      	pop	{r3, r4, r5, pc}
     6e0:	6840      	ldr	r0, [r0, #4]
     6e2:	6843      	ldr	r3, [r0, #4]
     6e4:	b11b      	cbz	r3, 6ee <__coalesce__+0x76>
     6e6:	6843      	ldr	r3, [r0, #4]
     6e8:	7a9b      	ldrb	r3, [r3, #10]
     6ea:	07dd      	lsls	r5, r3, #31
     6ec:	d432      	bmi.n	754 <__coalesce__+0xdc>
     6ee:	6863      	ldr	r3, [r4, #4]
     6f0:	2100      	movs	r1, #0
     6f2:	4a1b      	ldr	r2, [pc, #108]	; (760 <__coalesce__+0xe8>)
     6f4:	8918      	ldrh	r0, [r3, #8]
     6f6:	8923      	ldrh	r3, [r4, #8]
     6f8:	4403      	add	r3, r0
     6fa:	b29b      	uxth	r3, r3
     6fc:	8123      	strh	r3, [r4, #8]
     6fe:	6863      	ldr	r3, [r4, #4]
     700:	8119      	strh	r1, [r3, #8]
     702:	7aa3      	ldrb	r3, [r4, #10]
     704:	6861      	ldr	r1, [r4, #4]
     706:	091b      	lsrs	r3, r3, #4
     708:	6848      	ldr	r0, [r1, #4]
     70a:	f003 0304 	and.w	r3, r3, #4
     70e:	f832 1013 	ldrh.w	r1, [r2, r3, lsl #1]
     712:	3901      	subs	r1, #1
     714:	f822 1013 	strh.w	r1, [r2, r3, lsl #1]
     718:	6060      	str	r0, [r4, #4]
     71a:	e7b9      	b.n	690 <__coalesce__+0x18>
     71c:	8928      	ldrh	r0, [r5, #8]
     71e:	682a      	ldr	r2, [r5, #0]
     720:	8913      	ldrh	r3, [r2, #8]
     722:	4403      	add	r3, r0
     724:	b29b      	uxth	r3, r3
     726:	8113      	strh	r3, [r2, #8]
     728:	8129      	strh	r1, [r5, #8]
     72a:	682b      	ldr	r3, [r5, #0]
     72c:	686a      	ldr	r2, [r5, #4]
     72e:	605a      	str	r2, [r3, #4]
     730:	6828      	ldr	r0, [r5, #0]
     732:	6803      	ldr	r3, [r0, #0]
     734:	b11b      	cbz	r3, 73e <__coalesce__+0xc6>
     736:	6803      	ldr	r3, [r0, #0]
     738:	7a9b      	ldrb	r3, [r3, #10]
     73a:	07db      	lsls	r3, r3, #31
     73c:	d40d      	bmi.n	75a <__coalesce__+0xe2>
     73e:	7aab      	ldrb	r3, [r5, #10]
     740:	4a07      	ldr	r2, [pc, #28]	; (760 <__coalesce__+0xe8>)
     742:	091b      	lsrs	r3, r3, #4
     744:	f003 0304 	and.w	r3, r3, #4
     748:	f832 1013 	ldrh.w	r1, [r2, r3, lsl #1]
     74c:	3901      	subs	r1, #1
     74e:	f822 1013 	strh.w	r1, [r2, r3, lsl #1]
     752:	e7bb      	b.n	6cc <__coalesce__+0x54>
     754:	f7ff fccc 	bl	f0 <__coalesce_front__.part.0>
     758:	e7c9      	b.n	6ee <__coalesce__+0x76>
     75a:	f7ff fc81 	bl	60 <__coalesce_back__.part.0>
     75e:	e7ee      	b.n	73e <__coalesce__+0xc6>
     760:	20000020 	.word	0x20000020

00000764 <__coalesce_front__>:
     764:	b538      	push	{r3, r4, r5, lr}
     766:	6843      	ldr	r3, [r0, #4]
     768:	b123      	cbz	r3, 774 <__coalesce_front__+0x10>
     76a:	6843      	ldr	r3, [r0, #4]
     76c:	4604      	mov	r4, r0
     76e:	7a9b      	ldrb	r3, [r3, #10]
     770:	07d9      	lsls	r1, r3, #31
     772:	d400      	bmi.n	776 <__coalesce_front__+0x12>
     774:	bd38      	pop	{r3, r4, r5, pc}
     776:	6845      	ldr	r5, [r0, #4]
     778:	686b      	ldr	r3, [r5, #4]
     77a:	b11b      	cbz	r3, 784 <__coalesce_front__+0x20>
     77c:	686b      	ldr	r3, [r5, #4]
     77e:	7a9b      	ldrb	r3, [r3, #10]
     780:	07da      	lsls	r2, r3, #31
     782:	d416      	bmi.n	7b2 <__coalesce_front__+0x4e>
     784:	491b      	ldr	r1, [pc, #108]	; (7f4 <__coalesce_front__+0x90>)
     786:	6863      	ldr	r3, [r4, #4]
     788:	2200      	movs	r2, #0
     78a:	8918      	ldrh	r0, [r3, #8]
     78c:	8923      	ldrh	r3, [r4, #8]
     78e:	4403      	add	r3, r0
     790:	b29b      	uxth	r3, r3
     792:	8123      	strh	r3, [r4, #8]
     794:	6863      	ldr	r3, [r4, #4]
     796:	811a      	strh	r2, [r3, #8]
     798:	7aa3      	ldrb	r3, [r4, #10]
     79a:	6862      	ldr	r2, [r4, #4]
     79c:	091b      	lsrs	r3, r3, #4
     79e:	6850      	ldr	r0, [r2, #4]
     7a0:	f003 0304 	and.w	r3, r3, #4
     7a4:	f831 2013 	ldrh.w	r2, [r1, r3, lsl #1]
     7a8:	3a01      	subs	r2, #1
     7aa:	f821 2013 	strh.w	r2, [r1, r3, lsl #1]
     7ae:	6060      	str	r0, [r4, #4]
     7b0:	bd38      	pop	{r3, r4, r5, pc}
     7b2:	6868      	ldr	r0, [r5, #4]
     7b4:	6843      	ldr	r3, [r0, #4]
     7b6:	b11b      	cbz	r3, 7c0 <__coalesce_front__+0x5c>
     7b8:	6843      	ldr	r3, [r0, #4]
     7ba:	7a9b      	ldrb	r3, [r3, #10]
     7bc:	07db      	lsls	r3, r3, #31
     7be:	d416      	bmi.n	7ee <__coalesce_front__+0x8a>
     7c0:	686b      	ldr	r3, [r5, #4]
     7c2:	2200      	movs	r2, #0
     7c4:	490b      	ldr	r1, [pc, #44]	; (7f4 <__coalesce_front__+0x90>)
     7c6:	8918      	ldrh	r0, [r3, #8]
     7c8:	892b      	ldrh	r3, [r5, #8]
     7ca:	4403      	add	r3, r0
     7cc:	b29b      	uxth	r3, r3
     7ce:	812b      	strh	r3, [r5, #8]
     7d0:	686b      	ldr	r3, [r5, #4]
     7d2:	811a      	strh	r2, [r3, #8]
     7d4:	7aab      	ldrb	r3, [r5, #10]
     7d6:	091b      	lsrs	r3, r3, #4
     7d8:	f003 0304 	and.w	r3, r3, #4
     7dc:	f831 2013 	ldrh.w	r2, [r1, r3, lsl #1]
     7e0:	3a01      	subs	r2, #1
     7e2:	f821 2013 	strh.w	r2, [r1, r3, lsl #1]
     7e6:	686b      	ldr	r3, [r5, #4]
     7e8:	685b      	ldr	r3, [r3, #4]
     7ea:	606b      	str	r3, [r5, #4]
     7ec:	e7cb      	b.n	786 <__coalesce_front__+0x22>
     7ee:	f7ff fc7f 	bl	f0 <__coalesce_front__.part.0>
     7f2:	e7e5      	b.n	7c0 <__coalesce_front__+0x5c>
     7f4:	20000020 	.word	0x20000020

000007f8 <__coalesce_back__>:
     7f8:	b538      	push	{r3, r4, r5, lr}
     7fa:	6803      	ldr	r3, [r0, #0]
     7fc:	2b00      	cmp	r3, #0
     7fe:	d043      	beq.n	888 <__coalesce_back__+0x90>
     800:	6803      	ldr	r3, [r0, #0]
     802:	4604      	mov	r4, r0
     804:	7a9b      	ldrb	r3, [r3, #10]
     806:	07d9      	lsls	r1, r3, #31
     808:	d401      	bmi.n	80e <__coalesce_back__+0x16>
     80a:	4620      	mov	r0, r4
     80c:	bd38      	pop	{r3, r4, r5, pc}
     80e:	8900      	ldrh	r0, [r0, #8]
     810:	2100      	movs	r1, #0
     812:	6822      	ldr	r2, [r4, #0]
     814:	8913      	ldrh	r3, [r2, #8]
     816:	4403      	add	r3, r0
     818:	b29b      	uxth	r3, r3
     81a:	8113      	strh	r3, [r2, #8]
     81c:	8121      	strh	r1, [r4, #8]
     81e:	6823      	ldr	r3, [r4, #0]
     820:	6862      	ldr	r2, [r4, #4]
     822:	605a      	str	r2, [r3, #4]
     824:	6825      	ldr	r5, [r4, #0]
     826:	682b      	ldr	r3, [r5, #0]
     828:	2b00      	cmp	r3, #0
     82a:	d032      	beq.n	892 <__coalesce_back__+0x9a>
     82c:	682b      	ldr	r3, [r5, #0]
     82e:	7a9b      	ldrb	r3, [r3, #10]
     830:	07da      	lsls	r2, r3, #31
     832:	d40c      	bmi.n	84e <__coalesce_back__+0x56>
     834:	4919      	ldr	r1, [pc, #100]	; (89c <__coalesce_back__+0xa4>)
     836:	7aa3      	ldrb	r3, [r4, #10]
     838:	462c      	mov	r4, r5
     83a:	091b      	lsrs	r3, r3, #4
     83c:	4620      	mov	r0, r4
     83e:	f003 0304 	and.w	r3, r3, #4
     842:	f831 2013 	ldrh.w	r2, [r1, r3, lsl #1]
     846:	3a01      	subs	r2, #1
     848:	f821 2013 	strh.w	r2, [r1, r3, lsl #1]
     84c:	bd38      	pop	{r3, r4, r5, pc}
     84e:	8928      	ldrh	r0, [r5, #8]
     850:	682a      	ldr	r2, [r5, #0]
     852:	8913      	ldrh	r3, [r2, #8]
     854:	4403      	add	r3, r0
     856:	b29b      	uxth	r3, r3
     858:	8113      	strh	r3, [r2, #8]
     85a:	8129      	strh	r1, [r5, #8]
     85c:	682b      	ldr	r3, [r5, #0]
     85e:	686a      	ldr	r2, [r5, #4]
     860:	605a      	str	r2, [r3, #4]
     862:	6828      	ldr	r0, [r5, #0]
     864:	6803      	ldr	r3, [r0, #0]
     866:	b1b3      	cbz	r3, 896 <__coalesce_back__+0x9e>
     868:	6803      	ldr	r3, [r0, #0]
     86a:	7a9b      	ldrb	r3, [r3, #10]
     86c:	07db      	lsls	r3, r3, #31
     86e:	d40d      	bmi.n	88c <__coalesce_back__+0x94>
     870:	7aab      	ldrb	r3, [r5, #10]
     872:	4605      	mov	r5, r0
     874:	4909      	ldr	r1, [pc, #36]	; (89c <__coalesce_back__+0xa4>)
     876:	091b      	lsrs	r3, r3, #4
     878:	f003 0304 	and.w	r3, r3, #4
     87c:	f831 2013 	ldrh.w	r2, [r1, r3, lsl #1]
     880:	3a01      	subs	r2, #1
     882:	f821 2013 	strh.w	r2, [r1, r3, lsl #1]
     886:	e7d6      	b.n	836 <__coalesce_back__+0x3e>
     888:	461c      	mov	r4, r3
     88a:	e7be      	b.n	80a <__coalesce_back__+0x12>
     88c:	f7ff fbe8 	bl	60 <__coalesce_back__.part.0>
     890:	e7ee      	b.n	870 <__coalesce_back__+0x78>
     892:	461d      	mov	r5, r3
     894:	e7ce      	b.n	834 <__coalesce_back__+0x3c>
     896:	4618      	mov	r0, r3
     898:	e7ea      	b.n	870 <__coalesce_back__+0x78>
     89a:	bf00      	nop
     89c:	20000020 	.word	0x20000020

000008a0 <__data_swap_next__>:
     8a0:	8903      	ldrh	r3, [r0, #8]
     8a2:	6842      	ldr	r2, [r0, #4]
     8a4:	b29b      	uxth	r3, r3
     8a6:	8912      	ldrh	r2, [r2, #8]
     8a8:	b292      	uxth	r2, r2
     8aa:	8102      	strh	r2, [r0, #8]
     8ac:	6842      	ldr	r2, [r0, #4]
     8ae:	b410      	push	{r4}
     8b0:	8113      	strh	r3, [r2, #8]
     8b2:	6842      	ldr	r2, [r0, #4]
     8b4:	6843      	ldr	r3, [r0, #4]
     8b6:	6844      	ldr	r4, [r0, #4]
     8b8:	32cc      	adds	r2, #204	; 0xcc
     8ba:	f8b4 c008 	ldrh.w	ip, [r4, #8]
     8be:	fa1f fc8c 	uxth.w	ip, ip
     8c2:	eb0c 0c4c 	add.w	ip, ip, ip, lsl #1
     8c6:	eb03 0c8c 	add.w	ip, r3, ip, lsl #2
     8ca:	f10c 0ccc 	add.w	ip, ip, #204	; 0xcc
     8ce:	4562      	cmp	r2, ip
     8d0:	d008      	beq.n	8e4 <__data_swap_next__+0x44>
     8d2:	f100 01cc 	add.w	r1, r0, #204	; 0xcc
     8d6:	f812 3b01 	ldrb.w	r3, [r2], #1
     8da:	b2db      	uxtb	r3, r3
     8dc:	4594      	cmp	ip, r2
     8de:	f801 3b01 	strb.w	r3, [r1], #1
     8e2:	d1f8      	bne.n	8d6 <__data_swap_next__+0x36>
     8e4:	6802      	ldr	r2, [r0, #0]
     8e6:	6843      	ldr	r3, [r0, #4]
     8e8:	bc10      	pop	{r4}
     8ea:	681b      	ldr	r3, [r3, #0]
     8ec:	6003      	str	r3, [r0, #0]
     8ee:	6843      	ldr	r3, [r0, #4]
     8f0:	601a      	str	r2, [r3, #0]
     8f2:	6842      	ldr	r2, [r0, #4]
     8f4:	6843      	ldr	r3, [r0, #4]
     8f6:	685b      	ldr	r3, [r3, #4]
     8f8:	6043      	str	r3, [r0, #4]
     8fa:	6843      	ldr	r3, [r0, #4]
     8fc:	605a      	str	r2, [r3, #4]
     8fe:	4770      	bx	lr

00000900 <__time_clamp_24MHz__>:
     900:	f1a1 0303 	sub.w	r3, r1, #3
     904:	28b2      	cmp	r0, #178	; 0xb2
     906:	f1a1 0204 	sub.w	r2, r1, #4
     90a:	f1a0 3cff 	sub.w	ip, r0, #4294967295	; 0xffffffff
     90e:	fab3 f383 	clz	r3, r3
     912:	fab2 f282 	clz	r2, r2
     916:	fabc fc8c 	clz	ip, ip
     91a:	ea4f 1353 	mov.w	r3, r3, lsr #5
     91e:	bf98      	it	ls
     920:	2300      	movls	r3, #0
     922:	0952      	lsrs	r2, r2, #5
     924:	ea4f 1c5c 	mov.w	ip, ip, lsr #5
     928:	b530      	push	{r4, r5, lr}
     92a:	4d22      	ldr	r5, [pc, #136]	; (9b4 <__time_clamp_24MHz__+0xb4>)
     92c:	f04f 0e59 	mov.w	lr, #89	; 0x59
     930:	4c21      	ldr	r4, [pc, #132]	; (9b8 <__time_clamp_24MHz__+0xb8>)
     932:	42a8      	cmp	r0, r5
     934:	fb0e f303 	mul.w	r3, lr, r3
     938:	f1a1 0e05 	sub.w	lr, r1, #5
     93c:	bf98      	it	ls
     93e:	2200      	movls	r2, #0
     940:	2802      	cmp	r0, #2
     942:	fabe fe8e 	clz	lr, lr
     946:	fb04 3302 	mla	r3, r4, r2, r3
     94a:	f1a1 0202 	sub.w	r2, r1, #2
     94e:	4c1b      	ldr	r4, [pc, #108]	; (9bc <__time_clamp_24MHz__+0xbc>)
     950:	ea4f 1e5e 	mov.w	lr, lr, lsr #5
     954:	fab2 f282 	clz	r2, r2
     958:	ea4f 1252 	mov.w	r2, r2, lsr #5
     95c:	bf98      	it	ls
     95e:	2200      	movls	r2, #0
     960:	42a0      	cmp	r0, r4
     962:	4c17      	ldr	r4, [pc, #92]	; (9c0 <__time_clamp_24MHz__+0xc0>)
     964:	4413      	add	r3, r2
     966:	f1a1 0206 	sub.w	r2, r1, #6
     96a:	fab2 f282 	clz	r2, r2
     96e:	ea4f 1252 	mov.w	r2, r2, lsr #5
     972:	bf98      	it	ls
     974:	2200      	movls	r2, #0
     976:	fb04 3302 	mla	r3, r4, r2, r3
     97a:	4a12      	ldr	r2, [pc, #72]	; (9c4 <__time_clamp_24MHz__+0xc4>)
     97c:	4290      	cmp	r0, r2
     97e:	bf98      	it	ls
     980:	f04f 0e00 	movls.w	lr, #0
     984:	2907      	cmp	r1, #7
     986:	bf14      	ite	ne
     988:	2200      	movne	r2, #0
     98a:	f00c 0201 	andeq.w	r2, ip, #1
     98e:	2908      	cmp	r1, #8
     990:	bf14      	ite	ne
     992:	f04f 0c00 	movne.w	ip, #0
     996:	f00c 0c01 	andeq.w	ip, ip, #1
     99a:	490b      	ldr	r1, [pc, #44]	; (9c8 <__time_clamp_24MHz__+0xc8>)
     99c:	4462      	add	r2, ip
     99e:	fb01 330e 	mla	r3, r1, lr, r3
     9a2:	ebd2 0243 	rsbs	r2, r2, r3, lsl #1
     9a6:	bf0c      	ite	eq
     9a8:	2301      	moveq	r3, #1
     9aa:	2300      	movne	r3, #0
     9ac:	fb00 2003 	mla	r0, r0, r3, r2
     9b0:	bd30      	pop	{r4, r5, pc}
     9b2:	bf00      	nop
     9b4:	0002bb0c 	.word	0x0002bb0c
     9b8:	00015d86 	.word	0x00015d86
     9bc:	6aaaaaaa 	.word	0x6aaaaaaa
     9c0:	35555555 	.word	0x35555555
     9c4:	0aaaaaaa 	.word	0x0aaaaaaa
     9c8:	05555555 	.word	0x05555555

000009cc <__time_clamp_50MHz__>:
     9cc:	f1a1 0303 	sub.w	r3, r1, #3
     9d0:	2855      	cmp	r0, #85	; 0x55
     9d2:	f1a1 0c04 	sub.w	ip, r1, #4
     9d6:	f1a0 32ff 	sub.w	r2, r0, #4294967295	; 0xffffffff
     9da:	fab3 f383 	clz	r3, r3
     9de:	fabc fc8c 	clz	ip, ip
     9e2:	fab2 f282 	clz	r2, r2
     9e6:	ea4f 1353 	mov.w	r3, r3, lsr #5
     9ea:	bf98      	it	ls
     9ec:	2300      	movls	r3, #0
     9ee:	ea4f 1c5c 	mov.w	ip, ip, lsr #5
     9f2:	eb03 0383 	add.w	r3, r3, r3, lsl #2
     9f6:	0952      	lsrs	r2, r2, #5
     9f8:	eb03 1303 	add.w	r3, r3, r3, lsl #4
     9fc:	b510      	push	{r4, lr}
     9fe:	4c1f      	ldr	r4, [pc, #124]	; (a7c <__time_clamp_50MHz__+0xb0>)
     a00:	f04f 3e33 	mov.w	lr, #858993459	; 0x33333333
     a04:	42a0      	cmp	r0, r4
     a06:	bf98      	it	ls
     a08:	f04f 0c00 	movls.w	ip, #0
     a0c:	2801      	cmp	r0, #1
     a0e:	fb04 330c 	mla	r3, r4, ip, r3
     a12:	f1a1 0402 	sub.w	r4, r1, #2
     a16:	f1a1 0c06 	sub.w	ip, r1, #6
     a1a:	fab4 f484 	clz	r4, r4
     a1e:	fabc fc8c 	clz	ip, ip
     a22:	ea4f 1454 	mov.w	r4, r4, lsr #5
     a26:	bf98      	it	ls
     a28:	2400      	movls	r4, #0
     a2a:	f1b0 3f33 	cmp.w	r0, #858993459	; 0x33333333
     a2e:	ea4f 1c5c 	mov.w	ip, ip, lsr #5
     a32:	4423      	add	r3, r4
     a34:	4c12      	ldr	r4, [pc, #72]	; (a80 <__time_clamp_50MHz__+0xb4>)
     a36:	bf98      	it	ls
     a38:	f04f 0c00 	movls.w	ip, #0
     a3c:	42a0      	cmp	r0, r4
     a3e:	fb0e 330c 	mla	r3, lr, ip, r3
     a42:	f1a1 0c05 	sub.w	ip, r1, #5
     a46:	fabc fc8c 	clz	ip, ip
     a4a:	ea4f 1c5c 	mov.w	ip, ip, lsr #5
     a4e:	bf98      	it	ls
     a50:	f04f 0c00 	movls.w	ip, #0
     a54:	fb04 330c 	mla	r3, r4, ip, r3
     a58:	2907      	cmp	r1, #7
     a5a:	bf14      	ite	ne
     a5c:	2400      	movne	r4, #0
     a5e:	f002 0401 	andeq.w	r4, r2, #1
     a62:	2908      	cmp	r1, #8
     a64:	bf14      	ite	ne
     a66:	2200      	movne	r2, #0
     a68:	f002 0201 	andeq.w	r2, r2, #1
     a6c:	1b1b      	subs	r3, r3, r4
     a6e:	1a9b      	subs	r3, r3, r2
     a70:	bf0c      	ite	eq
     a72:	2201      	moveq	r2, #1
     a74:	2200      	movne	r2, #0
     a76:	fb00 3002 	mla	r0, r0, r2, r3
     a7a:	bd10      	pop	{r4, pc}
     a7c:	00014f8b 	.word	0x00014f8b
     a80:	051eb851 	.word	0x051eb851

00000a84 <__time_clamp_100MHz__>:
     a84:	2902      	cmp	r1, #2
     a86:	d94d      	bls.n	b24 <__time_clamp_100MHz__+0xa0>
     a88:	282a      	cmp	r0, #42	; 0x2a
     a8a:	f1a1 0304 	sub.w	r3, r1, #4
     a8e:	f1a0 32ff 	sub.w	r2, r0, #4294967295	; 0xffffffff
     a92:	f04f 0c2a 	mov.w	ip, #42	; 0x2a
     a96:	fab3 f383 	clz	r3, r3
     a9a:	fab2 f282 	clz	r2, r2
     a9e:	ea4f 1353 	mov.w	r3, r3, lsr #5
     aa2:	ea4f 1252 	mov.w	r2, r2, lsr #5
     aa6:	b530      	push	{r4, r5, lr}
     aa8:	f1a1 0503 	sub.w	r5, r1, #3
     aac:	f24a 74c5 	movw	r4, #42949	; 0xa7c5
     ab0:	f1a1 0e06 	sub.w	lr, r1, #6
     ab4:	fab5 f585 	clz	r5, r5
     ab8:	fabe fe8e 	clz	lr, lr
     abc:	ea4f 1555 	mov.w	r5, r5, lsr #5
     ac0:	bf98      	it	ls
     ac2:	2500      	movls	r5, #0
     ac4:	42a0      	cmp	r0, r4
     ac6:	ea4f 1e5e 	mov.w	lr, lr, lsr #5
     aca:	bf98      	it	ls
     acc:	2300      	movls	r3, #0
     ace:	fb04 f303 	mul.w	r3, r4, r3
     ad2:	4c15      	ldr	r4, [pc, #84]	; (b28 <__time_clamp_100MHz__+0xa4>)
     ad4:	fb0c 3305 	mla	r3, ip, r5, r3
     ad8:	4d14      	ldr	r5, [pc, #80]	; (b2c <__time_clamp_100MHz__+0xa8>)
     ada:	2907      	cmp	r1, #7
     adc:	bf14      	ite	ne
     ade:	f04f 0c00 	movne.w	ip, #0
     ae2:	f002 0c01 	andeq.w	ip, r2, #1
     ae6:	2908      	cmp	r1, #8
     ae8:	bf14      	ite	ne
     aea:	2200      	movne	r2, #0
     aec:	f002 0201 	andeq.w	r2, r2, #1
     af0:	42a8      	cmp	r0, r5
     af2:	f1a1 0105 	sub.w	r1, r1, #5
     af6:	bf98      	it	ls
     af8:	f04f 0e00 	movls.w	lr, #0
     afc:	fab1 f181 	clz	r1, r1
     b00:	42a0      	cmp	r0, r4
     b02:	ea4f 1151 	mov.w	r1, r1, lsr #5
     b06:	fb05 330e 	mla	r3, r5, lr, r3
     b0a:	bf98      	it	ls
     b0c:	2100      	movls	r1, #0
     b0e:	fb04 3301 	mla	r3, r4, r1, r3
     b12:	eba3 030c 	sub.w	r3, r3, ip
     b16:	1a9b      	subs	r3, r3, r2
     b18:	bf0c      	ite	eq
     b1a:	2201      	moveq	r2, #1
     b1c:	2200      	movne	r2, #0
     b1e:	fb00 3002 	mla	r0, r0, r2, r3
     b22:	bd30      	pop	{r4, r5, pc}
     b24:	2000      	movs	r0, #0
     b26:	4770      	bx	lr
     b28:	028f5c28 	.word	0x028f5c28
     b2c:	19999999 	.word	0x19999999

00000b30 <__time_clamp_150MHz__>:
     b30:	2902      	cmp	r1, #2
     b32:	d950      	bls.n	bd6 <__time_clamp_150MHz__+0xa6>
     b34:	f1a1 0203 	sub.w	r2, r1, #3
     b38:	f1a1 0304 	sub.w	r3, r1, #4
     b3c:	f646 7cd9 	movw	ip, #28633	; 0x6fd9
     b40:	281c      	cmp	r0, #28
     b42:	fab2 f282 	clz	r2, r2
     b46:	fab3 f383 	clz	r3, r3
     b4a:	ea4f 1252 	mov.w	r2, r2, lsr #5
     b4e:	bf98      	it	ls
     b50:	2200      	movls	r2, #0
     b52:	4560      	cmp	r0, ip
     b54:	ea4f 1353 	mov.w	r3, r3, lsr #5
     b58:	ebc2 02c2 	rsb	r2, r2, r2, lsl #3
     b5c:	bf98      	it	ls
     b5e:	2300      	movls	r3, #0
     b60:	f1b0 3f11 	cmp.w	r0, #286331153	; 0x11111111
     b64:	fb0c f303 	mul.w	r3, ip, r3
     b68:	f1a1 0c06 	sub.w	ip, r1, #6
     b6c:	fabc fc8c 	clz	ip, ip
     b70:	eb03 0382 	add.w	r3, r3, r2, lsl #2
     b74:	4a19      	ldr	r2, [pc, #100]	; (bdc <__time_clamp_150MHz__+0xac>)
     b76:	ea4f 1c5c 	mov.w	ip, ip, lsr #5
     b7a:	bf98      	it	ls
     b7c:	f04f 0c00 	movls.w	ip, #0
     b80:	4290      	cmp	r0, r2
     b82:	b500      	push	{lr}
     b84:	f04f 3e11 	mov.w	lr, #286331153	; 0x11111111
     b88:	fb0e 330c 	mla	r3, lr, ip, r3
     b8c:	f1a1 0c05 	sub.w	ip, r1, #5
     b90:	fabc fc8c 	clz	ip, ip
     b94:	ea4f 1c5c 	mov.w	ip, ip, lsr #5
     b98:	bf98      	it	ls
     b9a:	f04f 0c00 	movls.w	ip, #0
     b9e:	f1b0 3faa 	cmp.w	r0, #2863311530	; 0xaaaaaaaa
     ba2:	bf28      	it	cs
     ba4:	2907      	cmpcs	r1, #7
     ba6:	fb02 330c 	mla	r3, r2, ip, r3
     baa:	f04f 3caa 	mov.w	ip, #2863311530	; 0xaaaaaaaa
     bae:	bf0c      	ite	eq
     bb0:	2201      	moveq	r2, #1
     bb2:	2200      	movne	r2, #0
     bb4:	2908      	cmp	r1, #8
     bb6:	bf08      	it	eq
     bb8:	f1b0 3fff 	cmpeq.w	r0, #4294967295	; 0xffffffff
     bbc:	fb0c 3302 	mla	r3, ip, r2, r3
     bc0:	bf0c      	ite	eq
     bc2:	2101      	moveq	r1, #1
     bc4:	2100      	movne	r1, #0
     bc6:	1a5b      	subs	r3, r3, r1
     bc8:	bf0c      	ite	eq
     bca:	2201      	moveq	r2, #1
     bcc:	2200      	movne	r2, #0
     bce:	fb00 3002 	mla	r0, r0, r2, r3
     bd2:	f85d fb04 	ldr.w	pc, [sp], #4
     bd6:	2000      	movs	r0, #0
     bd8:	4770      	bx	lr
     bda:	bf00      	nop
     bdc:	01b4e81b 	.word	0x01b4e81b

00000be0 <__time_clamp_200MHz__>:
     be0:	2902      	cmp	r1, #2
     be2:	d94d      	bls.n	c80 <__time_clamp_200MHz__+0xa0>
     be4:	f1a1 0303 	sub.w	r3, r1, #3
     be8:	2815      	cmp	r0, #21
     bea:	f1a1 0c04 	sub.w	ip, r1, #4
     bee:	f245 32e2 	movw	r2, #21474	; 0x53e2
     bf2:	fab3 f383 	clz	r3, r3
     bf6:	fabc fc8c 	clz	ip, ip
     bfa:	ea4f 1353 	mov.w	r3, r3, lsr #5
     bfe:	bf98      	it	ls
     c00:	2300      	movls	r3, #0
     c02:	4290      	cmp	r0, r2
     c04:	ea4f 1c5c 	mov.w	ip, ip, lsr #5
     c08:	eb03 0343 	add.w	r3, r3, r3, lsl #1
     c0c:	bf98      	it	ls
     c0e:	f04f 0c00 	movls.w	ip, #0
     c12:	ebc3 03c3 	rsb	r3, r3, r3, lsl #3
     c16:	fb02 330c 	mla	r3, r2, ip, r3
     c1a:	f1a1 0c06 	sub.w	ip, r1, #6
     c1e:	4a19      	ldr	r2, [pc, #100]	; (c84 <__time_clamp_200MHz__+0xa4>)
     c20:	fabc fc8c 	clz	ip, ip
     c24:	4290      	cmp	r0, r2
     c26:	ea4f 1c5c 	mov.w	ip, ip, lsr #5
     c2a:	bf98      	it	ls
     c2c:	f04f 0c00 	movls.w	ip, #0
     c30:	fb02 330c 	mla	r3, r2, ip, r3
     c34:	4a14      	ldr	r2, [pc, #80]	; (c88 <__time_clamp_200MHz__+0xa8>)
     c36:	f1a1 0c05 	sub.w	ip, r1, #5
     c3a:	4290      	cmp	r0, r2
     c3c:	fabc fc8c 	clz	ip, ip
     c40:	ea4f 1c5c 	mov.w	ip, ip, lsr #5
     c44:	bf98      	it	ls
     c46:	f04f 0c00 	movls.w	ip, #0
     c4a:	2908      	cmp	r1, #8
     c4c:	bf08      	it	eq
     c4e:	f1b0 3fff 	cmpeq.w	r0, #4294967295	; 0xffffffff
     c52:	fb02 330c 	mla	r3, r2, ip, r3
     c56:	f06f 4c00 	mvn.w	ip, #2147483648	; 0x80000000
     c5a:	bf0c      	ite	eq
     c5c:	2201      	moveq	r2, #1
     c5e:	2200      	movne	r2, #0
     c60:	4560      	cmp	r0, ip
     c62:	bf28      	it	cs
     c64:	2907      	cmpcs	r1, #7
     c66:	bf0c      	ite	eq
     c68:	2101      	moveq	r1, #1
     c6a:	2100      	movne	r1, #0
     c6c:	ebc1 71c1 	rsb	r1, r1, r1, lsl #31
     c70:	4419      	add	r1, r3
     c72:	1a89      	subs	r1, r1, r2
     c74:	bf0c      	ite	eq
     c76:	2301      	moveq	r3, #1
     c78:	2300      	movne	r3, #0
     c7a:	fb00 1003 	mla	r0, r0, r3, r1
     c7e:	4770      	bx	lr
     c80:	2000      	movs	r0, #0
     c82:	4770      	bx	lr
     c84:	0ccccccc 	.word	0x0ccccccc
     c88:	0147ae14 	.word	0x0147ae14

00000c8c <__resolve_time_24MHz__>:
     c8c:	e92d 43f0 	stmdb	sp!, {r4, r5, r6, r7, r8, r9, lr}
     c90:	f1a1 0c04 	sub.w	ip, r1, #4
     c94:	f1a1 0503 	sub.w	r5, r1, #3
     c98:	4b42      	ldr	r3, [pc, #264]	; (da4 <__resolve_time_24MHz__+0x118>)
     c9a:	2659      	movs	r6, #89	; 0x59
     c9c:	fab5 f585 	clz	r5, r5
     ca0:	fabc fc8c 	clz	ip, ip
     ca4:	f1a1 0202 	sub.w	r2, r1, #2
     ca8:	4f3f      	ldr	r7, [pc, #252]	; (da8 <__resolve_time_24MHz__+0x11c>)
     caa:	096d      	lsrs	r5, r5, #5
     cac:	f1a1 0e07 	sub.w	lr, r1, #7
     cb0:	ea4f 1c5c 	mov.w	ip, ip, lsr #5
     cb4:	fab2 f282 	clz	r2, r2
     cb8:	f1a0 38ff 	sub.w	r8, r0, #4294967295	; 0xffffffff
     cbc:	f8df 90ec 	ldr.w	r9, [pc, #236]	; dac <__resolve_time_24MHz__+0x120>
     cc0:	4298      	cmp	r0, r3
     cc2:	bf94      	ite	ls
     cc4:	2400      	movls	r4, #0
     cc6:	f00c 0401 	andhi.w	r4, ip, #1
     cca:	28b2      	cmp	r0, #178	; 0xb2
     ccc:	bf94      	ite	ls
     cce:	2300      	movls	r3, #0
     cd0:	f005 0301 	andhi.w	r3, r5, #1
     cd4:	0952      	lsrs	r2, r2, #5
     cd6:	fabe fe8e 	clz	lr, lr
     cda:	fb06 f303 	mul.w	r3, r6, r3
     cde:	4e34      	ldr	r6, [pc, #208]	; (db0 <__resolve_time_24MHz__+0x124>)
     ce0:	fab8 f888 	clz	r8, r8
     ce4:	ea4f 1e5e 	mov.w	lr, lr, lsr #5
     ce8:	fb06 3304 	mla	r3, r6, r4, r3
     cec:	f1a1 0406 	sub.w	r4, r1, #6
     cf0:	2802      	cmp	r0, #2
     cf2:	bf94      	ite	ls
     cf4:	2600      	movls	r6, #0
     cf6:	f002 0601 	andhi.w	r6, r2, #1
     cfa:	ea4f 1858 	mov.w	r8, r8, lsr #5
     cfe:	fab4 f484 	clz	r4, r4
     d02:	4433      	add	r3, r6
     d04:	0964      	lsrs	r4, r4, #5
     d06:	42b8      	cmp	r0, r7
     d08:	bf94      	ite	ls
     d0a:	2600      	movls	r6, #0
     d0c:	f004 0601 	andhi.w	r6, r4, #1
     d10:	f1a1 0705 	sub.w	r7, r1, #5
     d14:	f1a1 0108 	sub.w	r1, r1, #8
     d18:	fab7 f787 	clz	r7, r7
     d1c:	fb09 3306 	mla	r3, r9, r6, r3
     d20:	fab1 f181 	clz	r1, r1
     d24:	f8df 908c 	ldr.w	r9, [pc, #140]	; db4 <__resolve_time_24MHz__+0x128>
     d28:	097f      	lsrs	r7, r7, #5
     d2a:	0949      	lsrs	r1, r1, #5
     d2c:	4548      	cmp	r0, r9
     d2e:	bf94      	ite	ls
     d30:	2600      	movls	r6, #0
     d32:	f007 0601 	andhi.w	r6, r7, #1
     d36:	f8df 9080 	ldr.w	r9, [pc, #128]	; db8 <__resolve_time_24MHz__+0x12c>
     d3a:	eb07 0747 	add.w	r7, r7, r7, lsl #1
     d3e:	fb09 3306 	mla	r3, r9, r6, r3
     d42:	ea0e 0608 	and.w	r6, lr, r8
     d46:	ea08 0801 	and.w	r8, r8, r1
     d4a:	4446      	add	r6, r8
     d4c:	ebd6 0643 	rsbs	r6, r6, r3, lsl #1
     d50:	4b1a      	ldr	r3, [pc, #104]	; (dbc <__resolve_time_24MHz__+0x130>)
     d52:	fb03 f202 	mul.w	r2, r3, r2
     d56:	bf0c      	ite	eq
     d58:	2301      	moveq	r3, #1
     d5a:	2300      	movne	r3, #0
     d5c:	fb00 6603 	mla	r6, r0, r3, r6
     d60:	4817      	ldr	r0, [pc, #92]	; (dc0 <__resolve_time_24MHz__+0x134>)
     d62:	4b18      	ldr	r3, [pc, #96]	; (dc4 <__resolve_time_24MHz__+0x138>)
     d64:	fb00 2205 	mla	r2, r0, r5, r2
     d68:	eb06 0046 	add.w	r0, r6, r6, lsl #1
     d6c:	00c0      	lsls	r0, r0, #3
     d6e:	eb02 02c7 	add.w	r2, r2, r7, lsl #3
     d72:	fba3 5300 	umull	r5, r3, r3, r0
     d76:	08db      	lsrs	r3, r3, #3
     d78:	fb04 f303 	mul.w	r3, r4, r3
     d7c:	4c12      	ldr	r4, [pc, #72]	; (dc8 <__resolve_time_24MHz__+0x13c>)
     d7e:	fba4 5400 	umull	r5, r4, r4, r0
     d82:	0964      	lsrs	r4, r4, #5
     d84:	fb0e 3304 	mla	r3, lr, r4, r3
     d88:	f645 54c0 	movw	r4, #24000	; 0x5dc0
     d8c:	fb04 220c 	mla	r2, r4, ip, r2
     d90:	fb06 3302 	mla	r3, r6, r2, r3
     d94:	4a0d      	ldr	r2, [pc, #52]	; (dcc <__resolve_time_24MHz__+0x140>)
     d96:	fba2 2000 	umull	r2, r0, r2, r0
     d9a:	0980      	lsrs	r0, r0, #6
     d9c:	fb01 3000 	mla	r0, r1, r0, r3
     da0:	e8bd 83f0 	ldmia.w	sp!, {r4, r5, r6, r7, r8, r9, pc}
     da4:	0002bb0c 	.word	0x0002bb0c
     da8:	6aaaaaaa 	.word	0x6aaaaaaa
     dac:	35555555 	.word	0x35555555
     db0:	00015d86 	.word	0x00015d86
     db4:	0aaaaaaa 	.word	0x0aaaaaaa
     db8:	05555555 	.word	0x05555555
     dbc:	55d4a800 	.word	0x55d4a800
     dc0:	016e3600 	.word	0x016e3600
     dc4:	cccccccd 	.word	0xcccccccd
     dc8:	51eb851f 	.word	0x51eb851f
     dcc:	10624dd3 	.word	0x10624dd3

00000dd0 <__resolve_time_50MHz__>:
     dd0:	f1a1 0c03 	sub.w	ip, r1, #3
     dd4:	f1a1 0204 	sub.w	r2, r1, #4
     dd8:	fabc fc8c 	clz	ip, ip
     ddc:	fab2 f282 	clz	r2, r2
     de0:	ea4f 1c5c 	mov.w	ip, ip, lsr #5
     de4:	0952      	lsrs	r2, r2, #5
     de6:	2855      	cmp	r0, #85	; 0x55
     de8:	bf94      	ite	ls
     dea:	2300      	movls	r3, #0
     dec:	f00c 0301 	andhi.w	r3, ip, #1
     df0:	e92d 47f0 	stmdb	sp!, {r4, r5, r6, r7, r8, r9, sl, lr}
     df4:	eb03 0383 	add.w	r3, r3, r3, lsl #2
     df8:	4c3c      	ldr	r4, [pc, #240]	; (eec <__resolve_time_50MHz__+0x11c>)
     dfa:	f1a1 0e02 	sub.w	lr, r1, #2
     dfe:	f04f 3833 	mov.w	r8, #858993459	; 0x33333333
     e02:	42a0      	cmp	r0, r4
     e04:	bf94      	ite	ls
     e06:	2500      	movls	r5, #0
     e08:	f002 0501 	andhi.w	r5, r2, #1
     e0c:	eb03 1303 	add.w	r3, r3, r3, lsl #4
     e10:	fabe fe8e 	clz	lr, lr
     e14:	4e36      	ldr	r6, [pc, #216]	; (ef0 <__resolve_time_50MHz__+0x120>)
     e16:	fb04 3305 	mla	r3, r4, r5, r3
     e1a:	f1a1 0506 	sub.w	r5, r1, #6
     e1e:	ea4f 1e5e 	mov.w	lr, lr, lsr #5
     e22:	f8df a0d0 	ldr.w	sl, [pc, #208]	; ef4 <__resolve_time_50MHz__+0x124>
     e26:	fab5 f585 	clz	r5, r5
     e2a:	2801      	cmp	r0, #1
     e2c:	bf94      	ite	ls
     e2e:	2400      	movls	r4, #0
     e30:	f00e 0401 	andhi.w	r4, lr, #1
     e34:	fb0a fe0e 	mul.w	lr, sl, lr
     e38:	096d      	lsrs	r5, r5, #5
     e3a:	4423      	add	r3, r4
     e3c:	f1a1 0405 	sub.w	r4, r1, #5
     e40:	f1b0 3f33 	cmp.w	r0, #858993459	; 0x33333333
     e44:	bf94      	ite	ls
     e46:	2700      	movls	r7, #0
     e48:	f005 0701 	andhi.w	r7, r5, #1
     e4c:	fab4 f484 	clz	r4, r4
     e50:	fb08 3307 	mla	r3, r8, r7, r3
     e54:	f1a1 0707 	sub.w	r7, r1, #7
     e58:	f1a0 38ff 	sub.w	r8, r0, #4294967295	; 0xffffffff
     e5c:	0964      	lsrs	r4, r4, #5
     e5e:	fab7 f787 	clz	r7, r7
     e62:	f1a1 0108 	sub.w	r1, r1, #8
     e66:	fab8 f888 	clz	r8, r8
     e6a:	4425      	add	r5, r4
     e6c:	097f      	lsrs	r7, r7, #5
     e6e:	42b0      	cmp	r0, r6
     e70:	bf94      	ite	ls
     e72:	2400      	movls	r4, #0
     e74:	f004 0401 	andhi.w	r4, r4, #1
     e78:	ea4f 1858 	mov.w	r8, r8, lsr #5
     e7c:	fab1 f181 	clz	r1, r1
     e80:	fb06 3304 	mla	r3, r6, r4, r3
     e84:	2432      	movs	r4, #50	; 0x32
     e86:	ea07 0908 	and.w	r9, r7, r8
     e8a:	0949      	lsrs	r1, r1, #5
     e8c:	f641 066a 	movw	r6, #6250	; 0x186a
     e90:	ea08 0801 	and.w	r8, r8, r1
     e94:	eba3 0309 	sub.w	r3, r3, r9
     e98:	f8df 905c 	ldr.w	r9, [pc, #92]	; ef8 <__resolve_time_50MHz__+0x128>
     e9c:	ebb3 0308 	subs.w	r3, r3, r8
     ea0:	f8df 8058 	ldr.w	r8, [pc, #88]	; efc <__resolve_time_50MHz__+0x12c>
     ea4:	bf0c      	ite	eq
     ea6:	f04f 0a01 	moveq.w	sl, #1
     eaa:	f04f 0a00 	movne.w	sl, #0
     eae:	fb00 330a 	mla	r3, r0, sl, r3
     eb2:	fb03 f404 	mul.w	r4, r3, r4
     eb6:	fba9 9004 	umull	r9, r0, r9, r4
     eba:	0940      	lsrs	r0, r0, #5
     ebc:	fb07 f000 	mul.w	r0, r7, r0
     ec0:	fb06 f703 	mul.w	r7, r6, r3
     ec4:	fba8 8707 	umull	r8, r7, r8, r7
     ec8:	09bf      	lsrs	r7, r7, #6
     eca:	fb05 0007 	mla	r0, r5, r7, r0
     ece:	4d0c      	ldr	r5, [pc, #48]	; (f00 <__resolve_time_50MHz__+0x130>)
     ed0:	fb05 ee0c 	mla	lr, r5, ip, lr
     ed4:	fb06 ee02 	mla	lr, r6, r2, lr
     ed8:	4a0a      	ldr	r2, [pc, #40]	; (f04 <__resolve_time_50MHz__+0x134>)
     eda:	fba2 2404 	umull	r2, r4, r2, r4
     ede:	fb03 030e 	mla	r3, r3, lr, r0
     ee2:	09a0      	lsrs	r0, r4, #6
     ee4:	fb01 3000 	mla	r0, r1, r0, r3
     ee8:	e8bd 87f0 	ldmia.w	sp!, {r4, r5, r6, r7, r8, r9, sl, pc}
     eec:	00014f8b 	.word	0x00014f8b
     ef0:	051eb851 	.word	0x051eb851
     ef4:	b2d05e00 	.word	0xb2d05e00
     ef8:	51eb851f 	.word	0x51eb851f
     efc:	cccccccd 	.word	0xcccccccd
     f00:	017d7840 	.word	0x017d7840
     f04:	10624dd3 	.word	0x10624dd3

00000f08 <__resolve_time_100MHz__>:
     f08:	2902      	cmp	r1, #2
     f0a:	d96b      	bls.n	fe4 <__resolve_time_100MHz__+0xdc>
     f0c:	f1a1 0c04 	sub.w	ip, r1, #4
     f10:	f1a1 0203 	sub.w	r2, r1, #3
     f14:	fabc fc8c 	clz	ip, ip
     f18:	fab2 f282 	clz	r2, r2
     f1c:	e92d 41f0 	stmdb	sp!, {r4, r5, r6, r7, r8, lr}
     f20:	ea4f 1c5c 	mov.w	ip, ip, lsr #5
     f24:	f24a 75c5 	movw	r5, #42949	; 0xa7c5
     f28:	f1a1 0e06 	sub.w	lr, r1, #6
     f2c:	0952      	lsrs	r2, r2, #5
     f2e:	42a8      	cmp	r0, r5
     f30:	bf94      	ite	ls
     f32:	2300      	movls	r3, #0
     f34:	f00c 0301 	andhi.w	r3, ip, #1
     f38:	4c2b      	ldr	r4, [pc, #172]	; (fe8 <__resolve_time_100MHz__+0xe0>)
     f3a:	fabe fe8e 	clz	lr, lr
     f3e:	282a      	cmp	r0, #42	; 0x2a
     f40:	bf94      	ite	ls
     f42:	2600      	movls	r6, #0
     f44:	f002 0601 	andhi.w	r6, r2, #1
     f48:	fb05 f303 	mul.w	r3, r5, r3
     f4c:	252a      	movs	r5, #42	; 0x2a
     f4e:	ea4f 1e5e 	mov.w	lr, lr, lsr #5
     f52:	4f26      	ldr	r7, [pc, #152]	; (fec <__resolve_time_100MHz__+0xe4>)
     f54:	fb05 3306 	mla	r3, r5, r6, r3
     f58:	f1a1 0505 	sub.w	r5, r1, #5
     f5c:	42a0      	cmp	r0, r4
     f5e:	bf94      	ite	ls
     f60:	2600      	movls	r6, #0
     f62:	f00e 0601 	andhi.w	r6, lr, #1
     f66:	eb0e 0e8e 	add.w	lr, lr, lr, lsl #2
     f6a:	fab5 f585 	clz	r5, r5
     f6e:	fb04 3306 	mla	r3, r4, r6, r3
     f72:	f1a1 0607 	sub.w	r6, r1, #7
     f76:	f1a1 0408 	sub.w	r4, r1, #8
     f7a:	f1a0 31ff 	sub.w	r1, r0, #4294967295	; 0xffffffff
     f7e:	096d      	lsrs	r5, r5, #5
     f80:	fab6 f686 	clz	r6, r6
     f84:	fab1 f181 	clz	r1, r1
     f88:	fab4 f484 	clz	r4, r4
     f8c:	42b8      	cmp	r0, r7
     f8e:	bf94      	ite	ls
     f90:	f04f 0800 	movls.w	r8, #0
     f94:	f005 0801 	andhi.w	r8, r5, #1
     f98:	0976      	lsrs	r6, r6, #5
     f9a:	0949      	lsrs	r1, r1, #5
     f9c:	0964      	lsrs	r4, r4, #5
     f9e:	fb07 3308 	mla	r3, r7, r8, r3
     fa2:	ea06 0701 	and.w	r7, r6, r1
     fa6:	ea4f 0e4e 	mov.w	lr, lr, lsl #1
     faa:	4021      	ands	r1, r4
     fac:	1bdb      	subs	r3, r3, r7
     fae:	1a5b      	subs	r3, r3, r1
     fb0:	f04f 0164 	mov.w	r1, #100	; 0x64
     fb4:	fb01 ee05 	mla	lr, r1, r5, lr
     fb8:	bf0c      	ite	eq
     fba:	2101      	moveq	r1, #1
     fbc:	2100      	movne	r1, #0
     fbe:	44b6      	add	lr, r6
     fc0:	fb00 3001 	mla	r0, r0, r1, r3
     fc4:	490a      	ldr	r1, [pc, #40]	; (ff0 <__resolve_time_100MHz__+0xe8>)
     fc6:	fba1 3100 	umull	r3, r1, r1, r0
     fca:	4b0a      	ldr	r3, [pc, #40]	; (ff4 <__resolve_time_100MHz__+0xec>)
     fcc:	08c9      	lsrs	r1, r1, #3
     fce:	fb03 e30c 	mla	r3, r3, ip, lr
     fd2:	fb04 f101 	mul.w	r1, r4, r1
     fd6:	4c08      	ldr	r4, [pc, #32]	; (ff8 <__resolve_time_100MHz__+0xf0>)
     fd8:	fb04 3302 	mla	r3, r4, r2, r3
     fdc:	fb00 1003 	mla	r0, r0, r3, r1
     fe0:	e8bd 81f0 	ldmia.w	sp!, {r4, r5, r6, r7, r8, pc}
     fe4:	2000      	movs	r0, #0
     fe6:	4770      	bx	lr
     fe8:	19999999 	.word	0x19999999
     fec:	028f5c28 	.word	0x028f5c28
     ff0:	cccccccd 	.word	0xcccccccd
     ff4:	000186a0 	.word	0x000186a0
     ff8:	05f5e100 	.word	0x05f5e100

00000ffc <__resolve_time_150MHz__>:
     ffc:	2902      	cmp	r1, #2
     ffe:	d976      	bls.n	10ee <__resolve_time_150MHz__+0xf2>
    1000:	f1a1 0203 	sub.w	r2, r1, #3
    1004:	f04f 3c11 	mov.w	ip, #286331153	; 0x11111111
    1008:	b5f0      	push	{r4, r5, r6, r7, lr}
    100a:	fab2 f282 	clz	r2, r2
    100e:	f1a1 0e04 	sub.w	lr, r1, #4
    1012:	f646 76d9 	movw	r6, #28633	; 0x6fd9
    1016:	f1a1 0506 	sub.w	r5, r1, #6
    101a:	0952      	lsrs	r2, r2, #5
    101c:	fabe fe8e 	clz	lr, lr
    1020:	fab5 f585 	clz	r5, r5
    1024:	4f33      	ldr	r7, [pc, #204]	; (10f4 <__resolve_time_150MHz__+0xf8>)
    1026:	281c      	cmp	r0, #28
    1028:	bf94      	ite	ls
    102a:	2300      	movls	r3, #0
    102c:	f002 0301 	andhi.w	r3, r2, #1
    1030:	ea4f 1e5e 	mov.w	lr, lr, lsr #5
    1034:	096d      	lsrs	r5, r5, #5
    1036:	ebc3 04c3 	rsb	r4, r3, r3, lsl #3
    103a:	42b0      	cmp	r0, r6
    103c:	bf94      	ite	ls
    103e:	2300      	movls	r3, #0
    1040:	f00e 0301 	andhi.w	r3, lr, #1
    1044:	fb06 f303 	mul.w	r3, r6, r3
    1048:	f1a1 0605 	sub.w	r6, r1, #5
    104c:	eb03 0384 	add.w	r3, r3, r4, lsl #2
    1050:	f1b0 3f11 	cmp.w	r0, #286331153	; 0x11111111
    1054:	bf94      	ite	ls
    1056:	2400      	movls	r4, #0
    1058:	f005 0401 	andhi.w	r4, r5, #1
    105c:	fab6 f686 	clz	r6, r6
    1060:	ebc5 1505 	rsb	r5, r5, r5, lsl #4
    1064:	fb0c 3304 	mla	r3, ip, r4, r3
    1068:	f1a1 0407 	sub.w	r4, r1, #7
    106c:	0976      	lsrs	r6, r6, #5
    106e:	f1a1 0c08 	sub.w	ip, r1, #8
    1072:	fab4 f484 	clz	r4, r4
    1076:	42b8      	cmp	r0, r7
    1078:	bf94      	ite	ls
    107a:	2100      	movls	r1, #0
    107c:	f006 0101 	andhi.w	r1, r6, #1
    1080:	fabc fc8c 	clz	ip, ip
    1084:	0964      	lsrs	r4, r4, #5
    1086:	ea4f 1c5c 	mov.w	ip, ip, lsr #5
    108a:	fb07 3301 	mla	r3, r7, r1, r3
    108e:	f1b0 3faa 	cmp.w	r0, #2863311530	; 0xaaaaaaaa
    1092:	bf34      	ite	cc
    1094:	2100      	movcc	r1, #0
    1096:	f004 0101 	andcs.w	r1, r4, #1
    109a:	f04f 37aa 	mov.w	r7, #2863311530	; 0xaaaaaaaa
    109e:	fb07 3301 	mla	r3, r7, r1, r3
    10a2:	f1b0 3fff 	cmp.w	r0, #4294967295	; 0xffffffff
    10a6:	bf14      	ite	ne
    10a8:	2100      	movne	r1, #0
    10aa:	f00c 0101 	andeq.w	r1, ip, #1
    10ae:	2796      	movs	r7, #150	; 0x96
    10b0:	1a5b      	subs	r3, r3, r1
    10b2:	4911      	ldr	r1, [pc, #68]	; (10f8 <__resolve_time_150MHz__+0xfc>)
    10b4:	fb07 5506 	mla	r5, r7, r6, r5
    10b8:	bf0c      	ite	eq
    10ba:	2601      	moveq	r6, #1
    10bc:	2600      	movne	r6, #0
    10be:	fb00 3006 	mla	r0, r0, r6, r3
    10c2:	4b0e      	ldr	r3, [pc, #56]	; (10fc <__resolve_time_150MHz__+0x100>)
    10c4:	4e0e      	ldr	r6, [pc, #56]	; (1100 <__resolve_time_150MHz__+0x104>)
    10c6:	fb03 550e 	mla	r5, r3, lr, r5
    10ca:	ebc0 1300 	rsb	r3, r0, r0, lsl #4
    10ce:	fba1 7103 	umull	r7, r1, r1, r3
    10d2:	fba6 6303 	umull	r6, r3, r6, r3
    10d6:	08c9      	lsrs	r1, r1, #3
    10d8:	095b      	lsrs	r3, r3, #5
    10da:	fb04 f101 	mul.w	r1, r4, r1
    10de:	fb0c 1103 	mla	r1, ip, r3, r1
    10e2:	4b08      	ldr	r3, [pc, #32]	; (1104 <__resolve_time_150MHz__+0x108>)
    10e4:	fb03 5302 	mla	r3, r3, r2, r5
    10e8:	fb00 1003 	mla	r0, r0, r3, r1
    10ec:	bdf0      	pop	{r4, r5, r6, r7, pc}
    10ee:	2000      	movs	r0, #0
    10f0:	4770      	bx	lr
    10f2:	bf00      	nop
    10f4:	01b4e81b 	.word	0x01b4e81b
    10f8:	cccccccd 	.word	0xcccccccd
    10fc:	000249f0 	.word	0x000249f0
    1100:	51eb851f 	.word	0x51eb851f
    1104:	08f0d180 	.word	0x08f0d180

00001108 <__resolve_time_200MHz__>:
    1108:	2902      	cmp	r1, #2
    110a:	d975      	bls.n	11f8 <__resolve_time_200MHz__+0xf0>
    110c:	f1a1 0c03 	sub.w	ip, r1, #3
    1110:	f245 32e2 	movw	r2, #21474	; 0x53e2
    1114:	fabc fc8c 	clz	ip, ip
    1118:	e92d 41f0 	stmdb	sp!, {r4, r5, r6, r7, r8, lr}
    111c:	ea4f 1c5c 	mov.w	ip, ip, lsr #5
    1120:	f1a1 0e04 	sub.w	lr, r1, #4
    1124:	f1a1 0406 	sub.w	r4, r1, #6
    1128:	4e34      	ldr	r6, [pc, #208]	; (11fc <__resolve_time_200MHz__+0xf4>)
    112a:	2815      	cmp	r0, #21
    112c:	bf94      	ite	ls
    112e:	2300      	movls	r3, #0
    1130:	f00c 0301 	andhi.w	r3, ip, #1
    1134:	fabe fe8e 	clz	lr, lr
    1138:	fab4 f484 	clz	r4, r4
    113c:	f06f 4800 	mvn.w	r8, #2147483648	; 0x80000000
    1140:	ea4f 1e5e 	mov.w	lr, lr, lsr #5
    1144:	eb03 0343 	add.w	r3, r3, r3, lsl #1
    1148:	4290      	cmp	r0, r2
    114a:	bf94      	ite	ls
    114c:	2500      	movls	r5, #0
    114e:	f00e 0501 	andhi.w	r5, lr, #1
    1152:	0964      	lsrs	r4, r4, #5
    1154:	ebc3 03c3 	rsb	r3, r3, r3, lsl #3
    1158:	42b0      	cmp	r0, r6
    115a:	bf94      	ite	ls
    115c:	2700      	movls	r7, #0
    115e:	f004 0701 	andhi.w	r7, r4, #1
    1162:	eb04 0484 	add.w	r4, r4, r4, lsl #2
    1166:	fb02 3305 	mla	r3, r2, r5, r3
    116a:	f1a1 0205 	sub.w	r2, r1, #5
    116e:	f1a1 0507 	sub.w	r5, r1, #7
    1172:	f1a1 0108 	sub.w	r1, r1, #8
    1176:	fab2 f282 	clz	r2, r2
    117a:	fb06 3307 	mla	r3, r6, r7, r3
    117e:	fab5 f585 	clz	r5, r5
    1182:	4f1f      	ldr	r7, [pc, #124]	; (1200 <__resolve_time_200MHz__+0xf8>)
    1184:	0952      	lsrs	r2, r2, #5
    1186:	fab1 f181 	clz	r1, r1
    118a:	096d      	lsrs	r5, r5, #5
    118c:	0949      	lsrs	r1, r1, #5
    118e:	4540      	cmp	r0, r8
    1190:	bf34      	ite	cc
    1192:	2600      	movcc	r6, #0
    1194:	f005 0601 	andcs.w	r6, r5, #1
    1198:	42b8      	cmp	r0, r7
    119a:	bf94      	ite	ls
    119c:	f04f 0800 	movls.w	r8, #0
    11a0:	f002 0801 	andhi.w	r8, r2, #1
    11a4:	ebc6 76c6 	rsb	r6, r6, r6, lsl #31
    11a8:	fb07 3308 	mla	r3, r7, r8, r3
    11ac:	4433      	add	r3, r6
    11ae:	f1b0 3fff 	cmp.w	r0, #4294967295	; 0xffffffff
    11b2:	bf14      	ite	ne
    11b4:	2600      	movne	r6, #0
    11b6:	f001 0601 	andeq.w	r6, r1, #1
    11ba:	1b9b      	subs	r3, r3, r6
    11bc:	f04f 06c8 	mov.w	r6, #200	; 0xc8
    11c0:	fb06 f202 	mul.w	r2, r6, r2
    11c4:	eb02 0245 	add.w	r2, r2, r5, lsl #1
    11c8:	eb02 0284 	add.w	r2, r2, r4, lsl #2
    11cc:	bf0c      	ite	eq
    11ce:	2401      	moveq	r4, #1
    11d0:	2400      	movne	r4, #0
    11d2:	fb00 3004 	mla	r0, r0, r4, r3
    11d6:	4b0b      	ldr	r3, [pc, #44]	; (1204 <__resolve_time_200MHz__+0xfc>)
    11d8:	4c0b      	ldr	r4, [pc, #44]	; (1208 <__resolve_time_200MHz__+0x100>)
    11da:	fb03 230e 	mla	r3, r3, lr, r2
    11de:	0042      	lsls	r2, r0, #1
    11e0:	fba4 4202 	umull	r4, r2, r4, r2
    11e4:	08d2      	lsrs	r2, r2, #3
    11e6:	fb01 f202 	mul.w	r2, r1, r2
    11ea:	4908      	ldr	r1, [pc, #32]	; (120c <__resolve_time_200MHz__+0x104>)
    11ec:	fb01 330c 	mla	r3, r1, ip, r3
    11f0:	fb00 2003 	mla	r0, r0, r3, r2
    11f4:	e8bd 81f0 	ldmia.w	sp!, {r4, r5, r6, r7, r8, pc}
    11f8:	2000      	movs	r0, #0
    11fa:	4770      	bx	lr
    11fc:	0ccccccc 	.word	0x0ccccccc
    1200:	0147ae14 	.word	0x0147ae14
    1204:	00030d40 	.word	0x00030d40
    1208:	cccccccd 	.word	0xcccccccd
    120c:	0bebc200 	.word	0x0bebc200

00001210 <init_gptman>:
    1210:	6943      	ldr	r3, [r0, #20]
    1212:	685b      	ldr	r3, [r3, #4]
    1214:	7019      	strb	r1, [r3, #0]
    1216:	4770      	bx	lr

00001218 <__slct_clksrc_gpt__>:
    1218:	6943      	ldr	r3, [r0, #20]
    121a:	685a      	ldr	r2, [r3, #4]
    121c:	7813      	ldrb	r3, [r2, #0]
    121e:	2b00      	cmp	r3, #0
    1220:	d040      	beq.n	12a4 <__slct_clksrc_gpt__+0x8c>
    1222:	2b01      	cmp	r3, #1
    1224:	d13d      	bne.n	12a2 <__slct_clksrc_gpt__+0x8a>
    1226:	4823      	ldr	r0, [pc, #140]	; (12b4 <__slct_clksrc_gpt__+0x9c>)
    1228:	4b23      	ldr	r3, [pc, #140]	; (12b8 <__slct_clksrc_gpt__+0xa0>)
    122a:	6e81      	ldr	r1, [r0, #104]	; 0x68
    122c:	f041 6170 	orr.w	r1, r1, #251658240	; 0xf000000
    1230:	6681      	str	r1, [r0, #104]	; 0x68
    1232:	6819      	ldr	r1, [r3, #0]
    1234:	f021 0101 	bic.w	r1, r1, #1
    1238:	6019      	str	r1, [r3, #0]
    123a:	68d9      	ldr	r1, [r3, #12]
    123c:	f021 011f 	bic.w	r1, r1, #31
    1240:	60d9      	str	r1, [r3, #12]
    1242:	6819      	ldr	r1, [r3, #0]
    1244:	f421 01e0 	bic.w	r1, r1, #7340032	; 0x700000
    1248:	6019      	str	r1, [r3, #0]
    124a:	6819      	ldr	r1, [r3, #0]
    124c:	f021 7160 	bic.w	r1, r1, #58720256	; 0x3800000
    1250:	6019      	str	r1, [r3, #0]
    1252:	6819      	ldr	r1, [r3, #0]
    1254:	f021 51e0 	bic.w	r1, r1, #469762048	; 0x1c000000
    1258:	6019      	str	r1, [r3, #0]
    125a:	6819      	ldr	r1, [r3, #0]
    125c:	f421 2170 	bic.w	r1, r1, #983040	; 0xf0000
    1260:	6019      	str	r1, [r3, #0]
    1262:	7892      	ldrb	r2, [r2, #2]
    1264:	6819      	ldr	r1, [r3, #0]
    1266:	0192      	lsls	r2, r2, #6
    1268:	f421 71e0 	bic.w	r1, r1, #448	; 0x1c0
    126c:	f402 72e0 	and.w	r2, r2, #448	; 0x1c0
    1270:	430a      	orrs	r2, r1
    1272:	601a      	str	r2, [r3, #0]
    1274:	681a      	ldr	r2, [r3, #0]
    1276:	f442 4200 	orr.w	r2, r2, #32768	; 0x8000
    127a:	601a      	str	r2, [r3, #0]
    127c:	689a      	ldr	r2, [r3, #8]
    127e:	f022 021f 	bic.w	r2, r2, #31
    1282:	609a      	str	r2, [r3, #8]
    1284:	681a      	ldr	r2, [r3, #0]
    1286:	f042 0202 	orr.w	r2, r2, #2
    128a:	601a      	str	r2, [r3, #0]
    128c:	681a      	ldr	r2, [r3, #0]
    128e:	f042 0201 	orr.w	r2, r2, #1
    1292:	601a      	str	r2, [r3, #0]
    1294:	68da      	ldr	r2, [r3, #12]
    1296:	f022 021f 	bic.w	r2, r2, #31
    129a:	f042 0201 	orr.w	r2, r2, #1
    129e:	60da      	str	r2, [r3, #12]
    12a0:	4770      	bx	lr
    12a2:	4770      	bx	lr
    12a4:	4803      	ldr	r0, [pc, #12]	; (12b4 <__slct_clksrc_gpt__+0x9c>)
    12a6:	4b05      	ldr	r3, [pc, #20]	; (12bc <__slct_clksrc_gpt__+0xa4>)
    12a8:	6ec1      	ldr	r1, [r0, #108]	; 0x6c
    12aa:	f441 0170 	orr.w	r1, r1, #15728640	; 0xf00000
    12ae:	66c1      	str	r1, [r0, #108]	; 0x6c
    12b0:	e7bf      	b.n	1232 <__slct_clksrc_gpt__+0x1a>
    12b2:	bf00      	nop
    12b4:	400fc000 	.word	0x400fc000
    12b8:	401f0000 	.word	0x401f0000
    12bc:	401ec000 	.word	0x401ec000

000012c0 <__set_callback_gpt__>:
    12c0:	6181      	str	r1, [r0, #24]
    12c2:	4770      	bx	lr

000012c4 <__set_comparator_gpt__>:
    12c4:	6943      	ldr	r3, [r0, #20]
    12c6:	685a      	ldr	r2, [r3, #4]
    12c8:	b510      	push	{r4, lr}
    12ca:	7813      	ldrb	r3, [r2, #0]
    12cc:	b17b      	cbz	r3, 12ee <__set_comparator_gpt__+0x2a>
    12ce:	2b01      	cmp	r3, #1
    12d0:	d10c      	bne.n	12ec <__set_comparator_gpt__+0x28>
    12d2:	4c1a      	ldr	r4, [pc, #104]	; (133c <__set_comparator_gpt__+0x78>)
    12d4:	68e3      	ldr	r3, [r4, #12]
    12d6:	f023 031f 	bic.w	r3, r3, #31
    12da:	f043 0301 	orr.w	r3, r3, #1
    12de:	60e3      	str	r3, [r4, #12]
    12e0:	7853      	ldrb	r3, [r2, #1]
    12e2:	2b01      	cmp	r3, #1
    12e4:	d01d      	beq.n	1322 <__set_comparator_gpt__+0x5e>
    12e6:	2b02      	cmp	r3, #2
    12e8:	d00f      	beq.n	130a <__set_comparator_gpt__+0x46>
    12ea:	b113      	cbz	r3, 12f2 <__set_comparator_gpt__+0x2e>
    12ec:	bd10      	pop	{r4, pc}
    12ee:	4c14      	ldr	r4, [pc, #80]	; (1340 <__set_comparator_gpt__+0x7c>)
    12f0:	e7f0      	b.n	12d4 <__set_comparator_gpt__+0x10>
    12f2:	6823      	ldr	r3, [r4, #0]
    12f4:	f423 03e0 	bic.w	r3, r3, #7340032	; 0x700000
    12f8:	f443 1340 	orr.w	r3, r3, #3145728	; 0x300000
    12fc:	6023      	str	r3, [r4, #0]
    12fe:	7801      	ldrb	r1, [r0, #0]
    1300:	6840      	ldr	r0, [r0, #4]
    1302:	f7ff fcc3 	bl	c8c <__resolve_time_24MHz__>
    1306:	6120      	str	r0, [r4, #16]
    1308:	bd10      	pop	{r4, pc}
    130a:	6823      	ldr	r3, [r4, #0]
    130c:	f023 53e0 	bic.w	r3, r3, #469762048	; 0x1c000000
    1310:	f043 6340 	orr.w	r3, r3, #201326592	; 0xc000000
    1314:	6023      	str	r3, [r4, #0]
    1316:	7801      	ldrb	r1, [r0, #0]
    1318:	6840      	ldr	r0, [r0, #4]
    131a:	f7ff fcb7 	bl	c8c <__resolve_time_24MHz__>
    131e:	61a0      	str	r0, [r4, #24]
    1320:	bd10      	pop	{r4, pc}
    1322:	6823      	ldr	r3, [r4, #0]
    1324:	f023 7360 	bic.w	r3, r3, #58720256	; 0x3800000
    1328:	f043 73c0 	orr.w	r3, r3, #25165824	; 0x1800000
    132c:	6023      	str	r3, [r4, #0]
    132e:	7801      	ldrb	r1, [r0, #0]
    1330:	6840      	ldr	r0, [r0, #4]
    1332:	f7ff fcab 	bl	c8c <__resolve_time_24MHz__>
    1336:	6160      	str	r0, [r4, #20]
    1338:	bd10      	pop	{r4, pc}
    133a:	bf00      	nop
    133c:	401f0000 	.word	0x401f0000
    1340:	401ec000 	.word	0x401ec000

00001344 <set_time>:
    1344:	b538      	push	{r3, r4, r5, lr}
    1346:	4603      	mov	r3, r0
    1348:	4610      	mov	r0, r2
    134a:	695a      	ldr	r2, [r3, #20]
    134c:	7019      	strb	r1, [r3, #0]
    134e:	6058      	str	r0, [r3, #4]
    1350:	6853      	ldr	r3, [r2, #4]
    1352:	781a      	ldrb	r2, [r3, #0]
    1354:	2a00      	cmp	r2, #0
    1356:	d06f      	beq.n	1438 <set_time+0xf4>
    1358:	2a01      	cmp	r2, #1
    135a:	d149      	bne.n	13f0 <set_time+0xac>
    135c:	4c49      	ldr	r4, [pc, #292]	; (1484 <set_time+0x140>)
    135e:	6ea2      	ldr	r2, [r4, #104]	; 0x68
    1360:	f042 6270 	orr.w	r2, r2, #251658240	; 0xf000000
    1364:	66a2      	str	r2, [r4, #104]	; 0x68
    1366:	f504 2474 	add.w	r4, r4, #999424	; 0xf4000
    136a:	6822      	ldr	r2, [r4, #0]
    136c:	f022 0201 	bic.w	r2, r2, #1
    1370:	6022      	str	r2, [r4, #0]
    1372:	68e2      	ldr	r2, [r4, #12]
    1374:	f022 021f 	bic.w	r2, r2, #31
    1378:	60e2      	str	r2, [r4, #12]
    137a:	6822      	ldr	r2, [r4, #0]
    137c:	f422 02e0 	bic.w	r2, r2, #7340032	; 0x700000
    1380:	6022      	str	r2, [r4, #0]
    1382:	6822      	ldr	r2, [r4, #0]
    1384:	f022 7260 	bic.w	r2, r2, #58720256	; 0x3800000
    1388:	6022      	str	r2, [r4, #0]
    138a:	6822      	ldr	r2, [r4, #0]
    138c:	f022 52e0 	bic.w	r2, r2, #469762048	; 0x1c000000
    1390:	6022      	str	r2, [r4, #0]
    1392:	6822      	ldr	r2, [r4, #0]
    1394:	f422 2270 	bic.w	r2, r2, #983040	; 0xf0000
    1398:	6022      	str	r2, [r4, #0]
    139a:	789a      	ldrb	r2, [r3, #2]
    139c:	6825      	ldr	r5, [r4, #0]
    139e:	0192      	lsls	r2, r2, #6
    13a0:	f425 75e0 	bic.w	r5, r5, #448	; 0x1c0
    13a4:	f402 72e0 	and.w	r2, r2, #448	; 0x1c0
    13a8:	432a      	orrs	r2, r5
    13aa:	6022      	str	r2, [r4, #0]
    13ac:	6822      	ldr	r2, [r4, #0]
    13ae:	f442 4200 	orr.w	r2, r2, #32768	; 0x8000
    13b2:	6022      	str	r2, [r4, #0]
    13b4:	68a2      	ldr	r2, [r4, #8]
    13b6:	f022 021f 	bic.w	r2, r2, #31
    13ba:	60a2      	str	r2, [r4, #8]
    13bc:	6822      	ldr	r2, [r4, #0]
    13be:	f042 0202 	orr.w	r2, r2, #2
    13c2:	6022      	str	r2, [r4, #0]
    13c4:	6822      	ldr	r2, [r4, #0]
    13c6:	f042 0201 	orr.w	r2, r2, #1
    13ca:	6022      	str	r2, [r4, #0]
    13cc:	68e2      	ldr	r2, [r4, #12]
    13ce:	f022 021f 	bic.w	r2, r2, #31
    13d2:	f042 0201 	orr.w	r2, r2, #1
    13d6:	60e2      	str	r2, [r4, #12]
    13d8:	68e2      	ldr	r2, [r4, #12]
    13da:	f022 021f 	bic.w	r2, r2, #31
    13de:	f042 0201 	orr.w	r2, r2, #1
    13e2:	60e2      	str	r2, [r4, #12]
    13e4:	785b      	ldrb	r3, [r3, #1]
    13e6:	2b01      	cmp	r3, #1
    13e8:	d042      	beq.n	1470 <set_time+0x12c>
    13ea:	2b02      	cmp	r3, #2
    13ec:	d036      	beq.n	145c <set_time+0x118>
    13ee:	b35b      	cbz	r3, 1448 <set_time+0x104>
    13f0:	4c25      	ldr	r4, [pc, #148]	; (1488 <set_time+0x144>)
    13f2:	2501      	movs	r5, #1
    13f4:	4825      	ldr	r0, [pc, #148]	; (148c <set_time+0x148>)
    13f6:	2200      	movs	r2, #0
    13f8:	f8c4 5464 	str.w	r5, [r4, #1124]	; 0x464
    13fc:	2408      	movs	r4, #8
    13fe:	4b24      	ldr	r3, [pc, #144]	; (1490 <set_time+0x14c>)
    1400:	f8c0 4108 	str.w	r4, [r0, #264]	; 0x108
    1404:	f44f 3498 	mov.w	r4, #77824	; 0x13000
    1408:	491e      	ldr	r1, [pc, #120]	; (1484 <set_time+0x140>)
    140a:	f8c0 42f8 	str.w	r4, [r0, #760]	; 0x2f8
    140e:	f04f 30ff 	mov.w	r0, #4294967295	; 0xffffffff
    1412:	601a      	str	r2, [r3, #0]
    1414:	605a      	str	r2, [r3, #4]
    1416:	6e8a      	ldr	r2, [r1, #104]	; 0x68
    1418:	f042 6270 	orr.w	r2, r2, #251658240	; 0xf000000
    141c:	668a      	str	r2, [r1, #104]	; 0x68
    141e:	689a      	ldr	r2, [r3, #8]
    1420:	f022 021f 	bic.w	r2, r2, #31
    1424:	609a      	str	r2, [r3, #8]
    1426:	68da      	ldr	r2, [r3, #12]
    1428:	f022 021f 	bic.w	r2, r2, #31
    142c:	432a      	orrs	r2, r5
    142e:	60da      	str	r2, [r3, #12]
    1430:	681a      	ldr	r2, [r3, #0]
    1432:	681a      	ldr	r2, [r3, #0]
    1434:	6018      	str	r0, [r3, #0]
    1436:	bd38      	pop	{r3, r4, r5, pc}
    1438:	4c12      	ldr	r4, [pc, #72]	; (1484 <set_time+0x140>)
    143a:	6ee2      	ldr	r2, [r4, #108]	; 0x6c
    143c:	f442 0270 	orr.w	r2, r2, #15728640	; 0xf00000
    1440:	66e2      	str	r2, [r4, #108]	; 0x6c
    1442:	f504 2470 	add.w	r4, r4, #983040	; 0xf0000
    1446:	e790      	b.n	136a <set_time+0x26>
    1448:	6823      	ldr	r3, [r4, #0]
    144a:	f423 03e0 	bic.w	r3, r3, #7340032	; 0x700000
    144e:	f443 1340 	orr.w	r3, r3, #3145728	; 0x300000
    1452:	6023      	str	r3, [r4, #0]
    1454:	f7ff fc1a 	bl	c8c <__resolve_time_24MHz__>
    1458:	6120      	str	r0, [r4, #16]
    145a:	e7c9      	b.n	13f0 <set_time+0xac>
    145c:	6823      	ldr	r3, [r4, #0]
    145e:	f023 53e0 	bic.w	r3, r3, #469762048	; 0x1c000000
    1462:	f043 6340 	orr.w	r3, r3, #201326592	; 0xc000000
    1466:	6023      	str	r3, [r4, #0]
    1468:	f7ff fc10 	bl	c8c <__resolve_time_24MHz__>
    146c:	61a0      	str	r0, [r4, #24]
    146e:	e7bf      	b.n	13f0 <set_time+0xac>
    1470:	6823      	ldr	r3, [r4, #0]
    1472:	f023 7360 	bic.w	r3, r3, #58720256	; 0x3800000
    1476:	f043 73c0 	orr.w	r3, r3, #25165824	; 0x1800000
    147a:	6023      	str	r3, [r4, #0]
    147c:	f7ff fc06 	bl	c8c <__resolve_time_24MHz__>
    1480:	6160      	str	r0, [r4, #20]
    1482:	e7b5      	b.n	13f0 <set_time+0xac>
    1484:	400fc000 	.word	0x400fc000
    1488:	401f8300 	.word	0x401f8300
    148c:	401f8000 	.word	0x401f8000
    1490:	401f0000 	.word	0x401f0000

00001494 <__setup_gpt2__>:
    1494:	b430      	push	{r4, r5}
    1496:	2501      	movs	r5, #1
    1498:	4c11      	ldr	r4, [pc, #68]	; (14e0 <__setup_gpt2__+0x4c>)
    149a:	4812      	ldr	r0, [pc, #72]	; (14e4 <__setup_gpt2__+0x50>)
    149c:	2200      	movs	r2, #0
    149e:	f8c4 5464 	str.w	r5, [r4, #1124]	; 0x464
    14a2:	2408      	movs	r4, #8
    14a4:	4b10      	ldr	r3, [pc, #64]	; (14e8 <__setup_gpt2__+0x54>)
    14a6:	f8c0 4108 	str.w	r4, [r0, #264]	; 0x108
    14aa:	f44f 3498 	mov.w	r4, #77824	; 0x13000
    14ae:	490f      	ldr	r1, [pc, #60]	; (14ec <__setup_gpt2__+0x58>)
    14b0:	f8c0 42f8 	str.w	r4, [r0, #760]	; 0x2f8
    14b4:	f04f 30ff 	mov.w	r0, #4294967295	; 0xffffffff
    14b8:	601a      	str	r2, [r3, #0]
    14ba:	605a      	str	r2, [r3, #4]
    14bc:	6e8a      	ldr	r2, [r1, #104]	; 0x68
    14be:	f042 6270 	orr.w	r2, r2, #251658240	; 0xf000000
    14c2:	668a      	str	r2, [r1, #104]	; 0x68
    14c4:	689a      	ldr	r2, [r3, #8]
    14c6:	f022 021f 	bic.w	r2, r2, #31
    14ca:	609a      	str	r2, [r3, #8]
    14cc:	68da      	ldr	r2, [r3, #12]
    14ce:	f022 021f 	bic.w	r2, r2, #31
    14d2:	432a      	orrs	r2, r5
    14d4:	bc30      	pop	{r4, r5}
    14d6:	60da      	str	r2, [r3, #12]
    14d8:	681a      	ldr	r2, [r3, #0]
    14da:	681a      	ldr	r2, [r3, #0]
    14dc:	6018      	str	r0, [r3, #0]
    14de:	4770      	bx	lr
    14e0:	401f8300 	.word	0x401f8300
    14e4:	401f8000 	.word	0x401f8000
    14e8:	401f0000 	.word	0x401f0000
    14ec:	400fc000 	.word	0x400fc000

000014f0 <init_pitman>:
    14f0:	b510      	push	{r4, lr}
    14f2:	4604      	mov	r4, r0
    14f4:	7403      	strb	r3, [r0, #16]
    14f6:	460b      	mov	r3, r1
    14f8:	a803      	add	r0, sp, #12
    14fa:	6961      	ldr	r1, [r4, #20]
    14fc:	46a4      	mov	ip, r4
    14fe:	f89d e008 	ldrb.w	lr, [sp, #8]
    1502:	6849      	ldr	r1, [r1, #4]
    1504:	700a      	strb	r2, [r1, #0]
    1506:	704b      	strb	r3, [r1, #1]
    1508:	9a05      	ldr	r2, [sp, #20]
    150a:	c803      	ldmia	r0, {r0, r1}
    150c:	6062      	str	r2, [r4, #4]
    150e:	f80c eb08 	strb.w	lr, [ip], #8
    1512:	e88c 0003 	stmia.w	ip, {r0, r1}
    1516:	9906      	ldr	r1, [sp, #24]
    1518:	61a1      	str	r1, [r4, #24]
    151a:	2b03      	cmp	r3, #3
    151c:	d808      	bhi.n	1530 <init_pitman+0x40>
    151e:	e8df f003 	tbb	[pc, r3]
    1522:	0e14      	.short	0x0e14
    1524:	0802      	.short	0x0802
    1526:	4671      	mov	r1, lr
    1528:	4610      	mov	r0, r2
    152a:	f7ff fd67 	bl	ffc <__resolve_time_150MHz__>
    152e:	6060      	str	r0, [r4, #4]
    1530:	bd10      	pop	{r4, pc}
    1532:	4671      	mov	r1, lr
    1534:	4610      	mov	r0, r2
    1536:	f7ff fde7 	bl	1108 <__resolve_time_200MHz__>
    153a:	6060      	str	r0, [r4, #4]
    153c:	bd10      	pop	{r4, pc}
    153e:	4671      	mov	r1, lr
    1540:	4610      	mov	r0, r2
    1542:	f7ff fce1 	bl	f08 <__resolve_time_100MHz__>
    1546:	6060      	str	r0, [r4, #4]
    1548:	bd10      	pop	{r4, pc}
    154a:	4671      	mov	r1, lr
    154c:	4610      	mov	r0, r2
    154e:	f7ff fc3f 	bl	dd0 <__resolve_time_50MHz__>
    1552:	6060      	str	r0, [r4, #4]
    1554:	bd10      	pop	{r4, pc}
    1556:	bf00      	nop

00001558 <setupPITx>:
    1558:	4b34      	ldr	r3, [pc, #208]	; (162c <setupPITx+0xd4>)
    155a:	4935      	ldr	r1, [pc, #212]	; (1630 <setupPITx+0xd8>)
    155c:	69da      	ldr	r2, [r3, #28]
    155e:	f042 0240 	orr.w	r2, r2, #64	; 0x40
    1562:	b430      	push	{r4, r5}
    1564:	61da      	str	r2, [r3, #28]
    1566:	69da      	ldr	r2, [r3, #28]
    1568:	f022 023f 	bic.w	r2, r2, #63	; 0x3f
    156c:	61da      	str	r2, [r3, #28]
    156e:	6eda      	ldr	r2, [r3, #108]	; 0x6c
    1570:	f442 5240 	orr.w	r2, r2, #12288	; 0x3000
    1574:	66da      	str	r2, [r3, #108]	; 0x6c
    1576:	680b      	ldr	r3, [r1, #0]
    1578:	2b02      	cmp	r3, #2
    157a:	d104      	bne.n	1586 <setupPITx+0x2e>
    157c:	2300      	movs	r3, #0
    157e:	f8c1 3108 	str.w	r3, [r1, #264]	; 0x108
    1582:	f8c1 3118 	str.w	r3, [r1, #280]	; 0x118
    1586:	4a29      	ldr	r2, [pc, #164]	; (162c <setupPITx+0xd4>)
    1588:	2401      	movs	r4, #1
    158a:	6941      	ldr	r1, [r0, #20]
    158c:	f8d2 3088 	ldr.w	r3, [r2, #136]	; 0x88
    1590:	6849      	ldr	r1, [r1, #4]
    1592:	4d28      	ldr	r5, [pc, #160]	; (1634 <setupPITx+0xdc>)
    1594:	f043 0301 	orr.w	r3, r3, #1
    1598:	f8c2 3088 	str.w	r3, [r2, #136]	; 0x88
    159c:	f8d5 20cc 	ldr.w	r2, [r5, #204]	; 0xcc
    15a0:	7849      	ldrb	r1, [r1, #1]
    15a2:	f022 0201 	bic.w	r2, r2, #1
    15a6:	4b22      	ldr	r3, [pc, #136]	; (1630 <setupPITx+0xd8>)
    15a8:	0189      	lsls	r1, r1, #6
    15aa:	f8c5 20cc 	str.w	r2, [r5, #204]	; 0xcc
    15ae:	f061 01c0 	orn	r1, r1, #192	; 0xc0
    15b2:	f8d5 22bc 	ldr.w	r2, [r5, #700]	; 0x2bc
    15b6:	4011      	ands	r1, r2
    15b8:	2200      	movs	r2, #0
    15ba:	f8c5 12bc 	str.w	r1, [r5, #700]	; 0x2bc
    15be:	f5a5 15a6 	sub.w	r5, r5, #1359872	; 0x14c000
    15c2:	601c      	str	r4, [r3, #0]
    15c4:	f8c3 2130 	str.w	r2, [r3, #304]	; 0x130
    15c8:	f8c3 2120 	str.w	r2, [r3, #288]	; 0x120
    15cc:	f8c3 2110 	str.w	r2, [r3, #272]	; 0x110
    15d0:	f8c3 2100 	str.w	r2, [r3, #256]	; 0x100
    15d4:	f8c3 2138 	str.w	r2, [r3, #312]	; 0x138
    15d8:	f8c3 2128 	str.w	r2, [r3, #296]	; 0x128
    15dc:	f8c3 2118 	str.w	r2, [r3, #280]	; 0x118
    15e0:	f8c3 2108 	str.w	r2, [r3, #264]	; 0x108
    15e4:	2203      	movs	r2, #3
    15e6:	f8c3 413c 	str.w	r4, [r3, #316]	; 0x13c
    15ea:	f8c3 412c 	str.w	r4, [r3, #300]	; 0x12c
    15ee:	f8c3 411c 	str.w	r4, [r3, #284]	; 0x11c
    15f2:	f8c3 410c 	str.w	r4, [r3, #268]	; 0x10c
    15f6:	6869      	ldr	r1, [r5, #4]
    15f8:	f441 5180 	orr.w	r1, r1, #4096	; 0x1000
    15fc:	6069      	str	r1, [r5, #4]
    15fe:	6819      	ldr	r1, [r3, #0]
    1600:	f021 0103 	bic.w	r1, r1, #3
    1604:	6019      	str	r1, [r3, #0]
    1606:	6841      	ldr	r1, [r0, #4]
    1608:	f8c3 1130 	str.w	r1, [r3, #304]	; 0x130
    160c:	f8c3 1120 	str.w	r1, [r3, #288]	; 0x120
    1610:	f8c3 1110 	str.w	r1, [r3, #272]	; 0x110
    1614:	f8c3 1100 	str.w	r1, [r3, #256]	; 0x100
    1618:	f8c3 2138 	str.w	r2, [r3, #312]	; 0x138
    161c:	f8c3 2128 	str.w	r2, [r3, #296]	; 0x128
    1620:	f8c3 2118 	str.w	r2, [r3, #280]	; 0x118
    1624:	f8c3 2108 	str.w	r2, [r3, #264]	; 0x108
    1628:	bc30      	pop	{r4, r5}
    162a:	4770      	bx	lr
    162c:	400fc000 	.word	0x400fc000
    1630:	40084000 	.word	0x40084000
    1634:	401f8000 	.word	0x401f8000

00001638 <setup_pit_timer>:
    1638:	b5f8      	push	{r3, r4, r5, r6, r7, lr}
    163a:	6982      	ldr	r2, [r0, #24]
    163c:	4604      	mov	r4, r0
    163e:	4b3c      	ldr	r3, [pc, #240]	; (1730 <setup_pit_timer+0xf8>)
    1640:	460d      	mov	r5, r1
    1642:	f8c3 2228 	str.w	r2, [r3, #552]	; 0x228
    1646:	4e3b      	ldr	r6, [pc, #236]	; (1734 <setup_pit_timer+0xfc>)
    1648:	6942      	ldr	r2, [r0, #20]
    164a:	6833      	ldr	r3, [r6, #0]
    164c:	6857      	ldr	r7, [r2, #4]
    164e:	f023 0303 	bic.w	r3, r3, #3
    1652:	6033      	str	r3, [r6, #0]
    1654:	787b      	ldrb	r3, [r7, #1]
    1656:	2b00      	cmp	r3, #0
    1658:	d04d      	beq.n	16f6 <setup_pit_timer+0xbe>
    165a:	2b01      	cmp	r3, #1
    165c:	d054      	beq.n	1708 <setup_pit_timer+0xd0>
    165e:	2b02      	cmp	r3, #2
    1660:	d05c      	beq.n	171c <setup_pit_timer+0xe4>
    1662:	2b03      	cmp	r3, #3
    1664:	d00e      	beq.n	1684 <setup_pit_timer+0x4c>
    1666:	b9b5      	cbnz	r5, 1696 <setup_pit_timer+0x5e>
    1668:	4b32      	ldr	r3, [pc, #200]	; (1734 <setup_pit_timer+0xfc>)
    166a:	f8d3 2108 	ldr.w	r2, [r3, #264]	; 0x108
    166e:	f042 0202 	orr.w	r2, r2, #2
    1672:	f8c3 2108 	str.w	r2, [r3, #264]	; 0x108
    1676:	f8d3 2108 	ldr.w	r2, [r3, #264]	; 0x108
    167a:	f042 0201 	orr.w	r2, r2, #1
    167e:	f8c3 2108 	str.w	r2, [r3, #264]	; 0x108
    1682:	bdf8      	pop	{r3, r4, r5, r6, r7, pc}
    1684:	7821      	ldrb	r1, [r4, #0]
    1686:	6860      	ldr	r0, [r4, #4]
    1688:	f7ff fd3e 	bl	1108 <__resolve_time_200MHz__>
    168c:	4b29      	ldr	r3, [pc, #164]	; (1734 <setup_pit_timer+0xfc>)
    168e:	f8c3 0100 	str.w	r0, [r3, #256]	; 0x100
    1692:	2d00      	cmp	r5, #0
    1694:	d0e8      	beq.n	1668 <setup_pit_timer+0x30>
    1696:	2d01      	cmp	r5, #1
    1698:	d10d      	bne.n	16b6 <setup_pit_timer+0x7e>
    169a:	4b26      	ldr	r3, [pc, #152]	; (1734 <setup_pit_timer+0xfc>)
    169c:	f8d3 2138 	ldr.w	r2, [r3, #312]	; 0x138
    16a0:	f042 0202 	orr.w	r2, r2, #2
    16a4:	f8c3 2118 	str.w	r2, [r3, #280]	; 0x118
    16a8:	f8d3 2138 	ldr.w	r2, [r3, #312]	; 0x138
    16ac:	f042 0201 	orr.w	r2, r2, #1
    16b0:	f8c3 2118 	str.w	r2, [r3, #280]	; 0x118
    16b4:	bdf8      	pop	{r3, r4, r5, r6, r7, pc}
    16b6:	2d02      	cmp	r5, #2
    16b8:	d10d      	bne.n	16d6 <setup_pit_timer+0x9e>
    16ba:	4b1e      	ldr	r3, [pc, #120]	; (1734 <setup_pit_timer+0xfc>)
    16bc:	f8d3 2138 	ldr.w	r2, [r3, #312]	; 0x138
    16c0:	f042 0202 	orr.w	r2, r2, #2
    16c4:	f8c3 2128 	str.w	r2, [r3, #296]	; 0x128
    16c8:	f8d3 2138 	ldr.w	r2, [r3, #312]	; 0x138
    16cc:	f042 0201 	orr.w	r2, r2, #1
    16d0:	f8c3 2128 	str.w	r2, [r3, #296]	; 0x128
    16d4:	bdf8      	pop	{r3, r4, r5, r6, r7, pc}
    16d6:	2d03      	cmp	r5, #3
    16d8:	d1d3      	bne.n	1682 <setup_pit_timer+0x4a>
    16da:	4b16      	ldr	r3, [pc, #88]	; (1734 <setup_pit_timer+0xfc>)
    16dc:	f8d3 2138 	ldr.w	r2, [r3, #312]	; 0x138
    16e0:	f042 0202 	orr.w	r2, r2, #2
    16e4:	f8c3 2138 	str.w	r2, [r3, #312]	; 0x138
    16e8:	f8d3 2138 	ldr.w	r2, [r3, #312]	; 0x138
    16ec:	f042 0201 	orr.w	r2, r2, #1
    16f0:	f8c3 2138 	str.w	r2, [r3, #312]	; 0x138
    16f4:	bdf8      	pop	{r3, r4, r5, r6, r7, pc}
    16f6:	7801      	ldrb	r1, [r0, #0]
    16f8:	6840      	ldr	r0, [r0, #4]
    16fa:	f7ff fb69 	bl	dd0 <__resolve_time_50MHz__>
    16fe:	f8c6 0100 	str.w	r0, [r6, #256]	; 0x100
    1702:	787b      	ldrb	r3, [r7, #1]
    1704:	2b01      	cmp	r3, #1
    1706:	d1aa      	bne.n	165e <setup_pit_timer+0x26>
    1708:	7821      	ldrb	r1, [r4, #0]
    170a:	6860      	ldr	r0, [r4, #4]
    170c:	f7ff fbfc 	bl	f08 <__resolve_time_100MHz__>
    1710:	4b08      	ldr	r3, [pc, #32]	; (1734 <setup_pit_timer+0xfc>)
    1712:	f8c3 0100 	str.w	r0, [r3, #256]	; 0x100
    1716:	787b      	ldrb	r3, [r7, #1]
    1718:	2b02      	cmp	r3, #2
    171a:	d1a2      	bne.n	1662 <setup_pit_timer+0x2a>
    171c:	7821      	ldrb	r1, [r4, #0]
    171e:	6860      	ldr	r0, [r4, #4]
    1720:	f7ff fc6c 	bl	ffc <__resolve_time_150MHz__>
    1724:	4b03      	ldr	r3, [pc, #12]	; (1734 <setup_pit_timer+0xfc>)
    1726:	f8c3 0100 	str.w	r0, [r3, #256]	; 0x100
    172a:	787b      	ldrb	r3, [r7, #1]
    172c:	e799      	b.n	1662 <setup_pit_timer+0x2a>
    172e:	bf00      	nop
    1730:	20000800 	.word	0x20000800
    1734:	40084000 	.word	0x40084000

00001738 <reset_pit>:
    1738:	b5f8      	push	{r3, r4, r5, r6, r7, lr}
    173a:	4f3b      	ldr	r7, [pc, #236]	; (1828 <reset_pit+0xf0>)
    173c:	4604      	mov	r4, r0
    173e:	6942      	ldr	r2, [r0, #20]
    1740:	460d      	mov	r5, r1
    1742:	683b      	ldr	r3, [r7, #0]
    1744:	6856      	ldr	r6, [r2, #4]
    1746:	f023 0303 	bic.w	r3, r3, #3
    174a:	603b      	str	r3, [r7, #0]
    174c:	7873      	ldrb	r3, [r6, #1]
    174e:	2b00      	cmp	r3, #0
    1750:	d04d      	beq.n	17ee <reset_pit+0xb6>
    1752:	2b01      	cmp	r3, #1
    1754:	d054      	beq.n	1800 <reset_pit+0xc8>
    1756:	2b02      	cmp	r3, #2
    1758:	d05c      	beq.n	1814 <reset_pit+0xdc>
    175a:	2b03      	cmp	r3, #3
    175c:	d00e      	beq.n	177c <reset_pit+0x44>
    175e:	b9b5      	cbnz	r5, 178e <reset_pit+0x56>
    1760:	4b31      	ldr	r3, [pc, #196]	; (1828 <reset_pit+0xf0>)
    1762:	f8d3 2108 	ldr.w	r2, [r3, #264]	; 0x108
    1766:	f042 0202 	orr.w	r2, r2, #2
    176a:	f8c3 2108 	str.w	r2, [r3, #264]	; 0x108
    176e:	f8d3 2108 	ldr.w	r2, [r3, #264]	; 0x108
    1772:	f042 0201 	orr.w	r2, r2, #1
    1776:	f8c3 2108 	str.w	r2, [r3, #264]	; 0x108
    177a:	bdf8      	pop	{r3, r4, r5, r6, r7, pc}
    177c:	7821      	ldrb	r1, [r4, #0]
    177e:	6860      	ldr	r0, [r4, #4]
    1780:	f7ff fcc2 	bl	1108 <__resolve_time_200MHz__>
    1784:	4b28      	ldr	r3, [pc, #160]	; (1828 <reset_pit+0xf0>)
    1786:	f8c3 0100 	str.w	r0, [r3, #256]	; 0x100
    178a:	2d00      	cmp	r5, #0
    178c:	d0e8      	beq.n	1760 <reset_pit+0x28>
    178e:	2d01      	cmp	r5, #1
    1790:	d10d      	bne.n	17ae <reset_pit+0x76>
    1792:	4b25      	ldr	r3, [pc, #148]	; (1828 <reset_pit+0xf0>)
    1794:	f8d3 2138 	ldr.w	r2, [r3, #312]	; 0x138
    1798:	f042 0202 	orr.w	r2, r2, #2
    179c:	f8c3 2118 	str.w	r2, [r3, #280]	; 0x118
    17a0:	f8d3 2138 	ldr.w	r2, [r3, #312]	; 0x138
    17a4:	f042 0201 	orr.w	r2, r2, #1
    17a8:	f8c3 2118 	str.w	r2, [r3, #280]	; 0x118
    17ac:	bdf8      	pop	{r3, r4, r5, r6, r7, pc}
    17ae:	2d02      	cmp	r5, #2
    17b0:	d10d      	bne.n	17ce <reset_pit+0x96>
    17b2:	4b1d      	ldr	r3, [pc, #116]	; (1828 <reset_pit+0xf0>)
    17b4:	f8d3 2138 	ldr.w	r2, [r3, #312]	; 0x138
    17b8:	f042 0202 	orr.w	r2, r2, #2
    17bc:	f8c3 2128 	str.w	r2, [r3, #296]	; 0x128
    17c0:	f8d3 2138 	ldr.w	r2, [r3, #312]	; 0x138
    17c4:	f042 0201 	orr.w	r2, r2, #1
    17c8:	f8c3 2128 	str.w	r2, [r3, #296]	; 0x128
    17cc:	bdf8      	pop	{r3, r4, r5, r6, r7, pc}
    17ce:	2d03      	cmp	r5, #3
    17d0:	d1d3      	bne.n	177a <reset_pit+0x42>
    17d2:	4b15      	ldr	r3, [pc, #84]	; (1828 <reset_pit+0xf0>)
    17d4:	f8d3 2138 	ldr.w	r2, [r3, #312]	; 0x138
    17d8:	f042 0202 	orr.w	r2, r2, #2
    17dc:	f8c3 2138 	str.w	r2, [r3, #312]	; 0x138
    17e0:	f8d3 2138 	ldr.w	r2, [r3, #312]	; 0x138
    17e4:	f042 0201 	orr.w	r2, r2, #1
    17e8:	f8c3 2138 	str.w	r2, [r3, #312]	; 0x138
    17ec:	bdf8      	pop	{r3, r4, r5, r6, r7, pc}
    17ee:	7801      	ldrb	r1, [r0, #0]
    17f0:	6840      	ldr	r0, [r0, #4]
    17f2:	f7ff faed 	bl	dd0 <__resolve_time_50MHz__>
    17f6:	f8c7 0100 	str.w	r0, [r7, #256]	; 0x100
    17fa:	7873      	ldrb	r3, [r6, #1]
    17fc:	2b01      	cmp	r3, #1
    17fe:	d1aa      	bne.n	1756 <reset_pit+0x1e>
    1800:	7821      	ldrb	r1, [r4, #0]
    1802:	6860      	ldr	r0, [r4, #4]
    1804:	f7ff fb80 	bl	f08 <__resolve_time_100MHz__>
    1808:	4b07      	ldr	r3, [pc, #28]	; (1828 <reset_pit+0xf0>)
    180a:	f8c3 0100 	str.w	r0, [r3, #256]	; 0x100
    180e:	7873      	ldrb	r3, [r6, #1]
    1810:	2b02      	cmp	r3, #2
    1812:	d1a2      	bne.n	175a <reset_pit+0x22>
    1814:	7821      	ldrb	r1, [r4, #0]
    1816:	6860      	ldr	r0, [r4, #4]
    1818:	f7ff fbf0 	bl	ffc <__resolve_time_150MHz__>
    181c:	4b02      	ldr	r3, [pc, #8]	; (1828 <reset_pit+0xf0>)
    181e:	f8c3 0100 	str.w	r0, [r3, #256]	; 0x100
    1822:	7873      	ldrb	r3, [r6, #1]
    1824:	e799      	b.n	175a <reset_pit+0x22>
    1826:	bf00      	nop
    1828:	40084000 	.word	0x40084000

0000182c <main>:
    182c:	b500      	push	{lr}
    182e:	b08b      	sub	sp, #44	; 0x2c
    1830:	2001      	movs	r0, #1
    1832:	ab01      	add	r3, sp, #4
    1834:	a903      	add	r1, sp, #12
    1836:	f8cd d008 	str.w	sp, [sp, #8]
    183a:	9308      	str	r3, [sp, #32]
    183c:	f000 f97c 	bl	1b38 <blinky_led_example_PIT>
    1840:	e7fe      	b.n	1840 <main+0x14>
    1842:	bf00      	nop

00001844 <trigger_gpio>:
    1844:	4770      	bx	lr
    1846:	bf00      	nop

00001848 <callback_toggle_led>:
    1848:	4b05      	ldr	r3, [pc, #20]	; (1860 <callback_toggle_led+0x18>)
    184a:	2108      	movs	r1, #8
    184c:	4a05      	ldr	r2, [pc, #20]	; (1864 <callback_toggle_led+0x1c>)
    184e:	f8c2 108c 	str.w	r1, [r2, #140]	; 0x8c
    1852:	f8d3 210c 	ldr.w	r2, [r3, #268]	; 0x10c
    1856:	f8c3 210c 	str.w	r2, [r3, #268]	; 0x10c
    185a:	f3bf 8f4f 	dsb	sy
    185e:	4770      	bx	lr
    1860:	40084000 	.word	0x40084000
    1864:	42004000 	.word	0x42004000

00001868 <init_gpio>:
    1868:	b530      	push	{r4, r5, lr}
    186a:	b083      	sub	sp, #12
    186c:	f89d 5018 	ldrb.w	r5, [sp, #24]
    1870:	b1d0      	cbz	r0, 18a8 <init_gpio+0x40>
    1872:	4604      	mov	r4, r0
    1874:	2a05      	cmp	r2, #5
    1876:	d821      	bhi.n	18bc <init_gpio+0x54>
    1878:	e8df f002 	tbb	[pc, r2]
    187c:	80776e18 	.word	0x80776e18
    1880:	6589      	.short	0x6589
    1882:	2b08      	cmp	r3, #8
    1884:	f04f 31ff 	mov.w	r1, #4294967295	; 0xffffffff
    1888:	4a45      	ldr	r2, [pc, #276]	; (19a0 <init_gpio+0x138>)
    188a:	bf18      	it	ne
    188c:	2100      	movne	r1, #0
    188e:	6711      	str	r1, [r2, #112]	; 0x70
    1890:	3b02      	subs	r3, #2
    1892:	b2db      	uxtb	r3, r3
    1894:	2b07      	cmp	r3, #7
    1896:	d82d      	bhi.n	18f4 <init_gpio+0x8c>
    1898:	4a42      	ldr	r2, [pc, #264]	; (19a4 <init_gpio+0x13c>)
    189a:	f852 2023 	ldr.w	r2, [r2, r3, lsl #2]
    189e:	7aa3      	ldrb	r3, [r4, #10]
    18a0:	6811      	ldr	r1, [r2, #0]
    18a2:	40ab      	lsls	r3, r5
    18a4:	430b      	orrs	r3, r1
    18a6:	6013      	str	r3, [r2, #0]
    18a8:	b003      	add	sp, #12
    18aa:	bd30      	pop	{r4, r5, pc}
    18ac:	2105      	movs	r1, #5
    18ae:	4a3e      	ldr	r2, [pc, #248]	; (19a8 <init_gpio+0x140>)
    18b0:	e9cd 5100 	strd	r5, r1, [sp]
    18b4:	493d      	ldr	r1, [pc, #244]	; (19ac <init_gpio+0x144>)
    18b6:	68c0      	ldr	r0, [r0, #12]
    18b8:	f7fe fbb2 	bl	20 <init_device_muxmode>
    18bc:	68e3      	ldr	r3, [r4, #12]
    18be:	735d      	strb	r5, [r3, #13]
    18c0:	7a23      	ldrb	r3, [r4, #8]
    18c2:	1e5a      	subs	r2, r3, #1
    18c4:	2a08      	cmp	r2, #8
    18c6:	d8e3      	bhi.n	1890 <init_gpio+0x28>
    18c8:	a101      	add	r1, pc, #4	; (adr r1, 18d0 <init_gpio+0x68>)
    18ca:	f851 f022 	ldr.w	pc, [r1, r2, lsl #2]
    18ce:	bf00      	nop
    18d0:	00001913 	.word	0x00001913
    18d4:	0000192d 	.word	0x0000192d
    18d8:	00001883 	.word	0x00001883
    18dc:	000018f9 	.word	0x000018f9
    18e0:	00001891 	.word	0x00001891
    18e4:	00001913 	.word	0x00001913
    18e8:	0000192d 	.word	0x0000192d
    18ec:	00001883 	.word	0x00001883
    18f0:	000018f9 	.word	0x000018f9
    18f4:	4a2e      	ldr	r2, [pc, #184]	; (19b0 <init_gpio+0x148>)
    18f6:	e7d2      	b.n	189e <init_gpio+0x36>
    18f8:	2b09      	cmp	r3, #9
    18fa:	f1a3 0302 	sub.w	r3, r3, #2
    18fe:	f04f 31ff 	mov.w	r1, #4294967295	; 0xffffffff
    1902:	4a27      	ldr	r2, [pc, #156]	; (19a0 <init_gpio+0x138>)
    1904:	b2db      	uxtb	r3, r3
    1906:	bf18      	it	ne
    1908:	2100      	movne	r1, #0
    190a:	2b07      	cmp	r3, #7
    190c:	6751      	str	r1, [r2, #116]	; 0x74
    190e:	d8f1      	bhi.n	18f4 <init_gpio+0x8c>
    1910:	e7c2      	b.n	1898 <init_gpio+0x30>
    1912:	2b06      	cmp	r3, #6
    1914:	f1a3 0302 	sub.w	r3, r3, #2
    1918:	f04f 31ff 	mov.w	r1, #4294967295	; 0xffffffff
    191c:	4a20      	ldr	r2, [pc, #128]	; (19a0 <init_gpio+0x138>)
    191e:	b2db      	uxtb	r3, r3
    1920:	bf18      	it	ne
    1922:	2100      	movne	r1, #0
    1924:	2b07      	cmp	r3, #7
    1926:	6691      	str	r1, [r2, #104]	; 0x68
    1928:	d8e4      	bhi.n	18f4 <init_gpio+0x8c>
    192a:	e7b5      	b.n	1898 <init_gpio+0x30>
    192c:	2b07      	cmp	r3, #7
    192e:	f1a3 0302 	sub.w	r3, r3, #2
    1932:	f04f 31ff 	mov.w	r1, #4294967295	; 0xffffffff
    1936:	4a1a      	ldr	r2, [pc, #104]	; (19a0 <init_gpio+0x138>)
    1938:	b2db      	uxtb	r3, r3
    193a:	bf18      	it	ne
    193c:	2100      	movne	r1, #0
    193e:	2b07      	cmp	r3, #7
    1940:	66d1      	str	r1, [r2, #108]	; 0x6c
    1942:	d8d7      	bhi.n	18f4 <init_gpio+0x8c>
    1944:	e7a8      	b.n	1898 <init_gpio+0x30>
    1946:	2105      	movs	r1, #5
    1948:	4a1a      	ldr	r2, [pc, #104]	; (19b4 <init_gpio+0x14c>)
    194a:	e9cd 5100 	strd	r5, r1, [sp]
    194e:	491a      	ldr	r1, [pc, #104]	; (19b8 <init_gpio+0x150>)
    1950:	68c0      	ldr	r0, [r0, #12]
    1952:	f7fe fb65 	bl	20 <init_device_muxmode>
    1956:	e7b1      	b.n	18bc <init_gpio+0x54>
    1958:	2105      	movs	r1, #5
    195a:	4a18      	ldr	r2, [pc, #96]	; (19bc <init_gpio+0x154>)
    195c:	e9cd 5100 	strd	r5, r1, [sp]
    1960:	4917      	ldr	r1, [pc, #92]	; (19c0 <init_gpio+0x158>)
    1962:	68c0      	ldr	r0, [r0, #12]
    1964:	f7fe fb5c 	bl	20 <init_device_muxmode>
    1968:	e7a8      	b.n	18bc <init_gpio+0x54>
    196a:	2105      	movs	r1, #5
    196c:	4a15      	ldr	r2, [pc, #84]	; (19c4 <init_gpio+0x15c>)
    196e:	e9cd 5100 	strd	r5, r1, [sp]
    1972:	4915      	ldr	r1, [pc, #84]	; (19c8 <init_gpio+0x160>)
    1974:	68c0      	ldr	r0, [r0, #12]
    1976:	f7fe fb53 	bl	20 <init_device_muxmode>
    197a:	e79f      	b.n	18bc <init_gpio+0x54>
    197c:	2105      	movs	r1, #5
    197e:	4a13      	ldr	r2, [pc, #76]	; (19cc <init_gpio+0x164>)
    1980:	e9cd 5100 	strd	r5, r1, [sp]
    1984:	4912      	ldr	r1, [pc, #72]	; (19d0 <init_gpio+0x168>)
    1986:	68c0      	ldr	r0, [r0, #12]
    1988:	f7fe fb4a 	bl	20 <init_device_muxmode>
    198c:	e796      	b.n	18bc <init_gpio+0x54>
    198e:	2105      	movs	r1, #5
    1990:	4a10      	ldr	r2, [pc, #64]	; (19d4 <init_gpio+0x16c>)
    1992:	e9cd 5100 	strd	r5, r1, [sp]
    1996:	4910      	ldr	r1, [pc, #64]	; (19d8 <init_gpio+0x170>)
    1998:	68c0      	ldr	r0, [r0, #12]
    199a:	f7fe fb41 	bl	20 <init_device_muxmode>
    199e:	e78d      	b.n	18bc <init_gpio+0x54>
    19a0:	400ac000 	.word	0x400ac000
    19a4:	20000000 	.word	0x20000000
    19a8:	401f82ac 	.word	0x401f82ac
    19ac:	401f80bc 	.word	0x401f80bc
    19b0:	401b8004 	.word	0x401b8004
    19b4:	401f83c4 	.word	0x401f83c4
    19b8:	401f81d4 	.word	0x401f81d4
    19bc:	401f82ec 	.word	0x401f82ec
    19c0:	401f80fc 	.word	0x401f80fc
    19c4:	401f832c 	.word	0x401f832c
    19c8:	401f813c 	.word	0x401f813c
    19cc:	401f836c 	.word	0x401f836c
    19d0:	401f817c 	.word	0x401f817c
    19d4:	401f83ac 	.word	0x401f83ac
    19d8:	401f81bc 	.word	0x401f81bc

000019dc <set_gpr_gdir>:
    19dc:	b410      	push	{r4}
    19de:	7a03      	ldrb	r3, [r0, #8]
    19e0:	1e5a      	subs	r2, r3, #1
    19e2:	2a08      	cmp	r2, #8
    19e4:	d80d      	bhi.n	1a02 <set_gpr_gdir+0x26>
    19e6:	e8df f002 	tbb	[pc, r2]
    19ea:	262e      	.short	0x262e
    19ec:	2e0c1e05 	.word	0x2e0c1e05
    19f0:	0526      	.short	0x0526
    19f2:	1e          	.byte	0x1e
    19f3:	00          	.byte	0x00
    19f4:	2b08      	cmp	r3, #8
    19f6:	f04f 31ff 	mov.w	r1, #4294967295	; 0xffffffff
    19fa:	4a17      	ldr	r2, [pc, #92]	; (1a58 <set_gpr_gdir+0x7c>)
    19fc:	bf18      	it	ne
    19fe:	2100      	movne	r1, #0
    1a00:	6711      	str	r1, [r2, #112]	; 0x70
    1a02:	3b02      	subs	r3, #2
    1a04:	b2db      	uxtb	r3, r3
    1a06:	2b07      	cmp	r3, #7
    1a08:	d80b      	bhi.n	1a22 <set_gpr_gdir+0x46>
    1a0a:	4a14      	ldr	r2, [pc, #80]	; (1a5c <set_gpr_gdir+0x80>)
    1a0c:	f852 2023 	ldr.w	r2, [r2, r3, lsl #2]
    1a10:	68c4      	ldr	r4, [r0, #12]
    1a12:	7a83      	ldrb	r3, [r0, #10]
    1a14:	7b60      	ldrb	r0, [r4, #13]
    1a16:	6811      	ldr	r1, [r2, #0]
    1a18:	4083      	lsls	r3, r0
    1a1a:	bc10      	pop	{r4}
    1a1c:	430b      	orrs	r3, r1
    1a1e:	6013      	str	r3, [r2, #0]
    1a20:	4770      	bx	lr
    1a22:	4a0f      	ldr	r2, [pc, #60]	; (1a60 <set_gpr_gdir+0x84>)
    1a24:	e7f4      	b.n	1a10 <set_gpr_gdir+0x34>
    1a26:	2b09      	cmp	r3, #9
    1a28:	f04f 31ff 	mov.w	r1, #4294967295	; 0xffffffff
    1a2c:	4a0a      	ldr	r2, [pc, #40]	; (1a58 <set_gpr_gdir+0x7c>)
    1a2e:	bf18      	it	ne
    1a30:	2100      	movne	r1, #0
    1a32:	6751      	str	r1, [r2, #116]	; 0x74
    1a34:	e7e5      	b.n	1a02 <set_gpr_gdir+0x26>
    1a36:	2b07      	cmp	r3, #7
    1a38:	f04f 31ff 	mov.w	r1, #4294967295	; 0xffffffff
    1a3c:	4a06      	ldr	r2, [pc, #24]	; (1a58 <set_gpr_gdir+0x7c>)
    1a3e:	bf18      	it	ne
    1a40:	2100      	movne	r1, #0
    1a42:	66d1      	str	r1, [r2, #108]	; 0x6c
    1a44:	e7dd      	b.n	1a02 <set_gpr_gdir+0x26>
    1a46:	2b06      	cmp	r3, #6
    1a48:	f04f 31ff 	mov.w	r1, #4294967295	; 0xffffffff
    1a4c:	4a02      	ldr	r2, [pc, #8]	; (1a58 <set_gpr_gdir+0x7c>)
    1a4e:	bf18      	it	ne
    1a50:	2100      	movne	r1, #0
    1a52:	6691      	str	r1, [r2, #104]	; 0x68
    1a54:	e7d5      	b.n	1a02 <set_gpr_gdir+0x26>
    1a56:	bf00      	nop
    1a58:	400ac000 	.word	0x400ac000
    1a5c:	20000000 	.word	0x20000000
    1a60:	401b8004 	.word	0x401b8004

00001a64 <init_onboard_led>:
    1a64:	b530      	push	{r4, r5, lr}
    1a66:	2010      	movs	r0, #16
    1a68:	b083      	sub	sp, #12
    1a6a:	f7fe fb85 	bl	178 <malloc_>
    1a6e:	2503      	movs	r5, #3
    1a70:	4604      	mov	r4, r0
    1a72:	2107      	movs	r1, #7
    1a74:	2301      	movs	r3, #1
    1a76:	2205      	movs	r2, #5
    1a78:	68c0      	ldr	r0, [r0, #12]
    1a7a:	7221      	strb	r1, [r4, #8]
    1a7c:	72a3      	strb	r3, [r4, #10]
    1a7e:	2338      	movs	r3, #56	; 0x38
    1a80:	4928      	ldr	r1, [pc, #160]	; (1b24 <init_onboard_led+0xc0>)
    1a82:	e9cd 5200 	strd	r5, r2, [sp]
    1a86:	4a28      	ldr	r2, [pc, #160]	; (1b28 <init_onboard_led+0xc4>)
    1a88:	f7fe faca 	bl	20 <init_device_muxmode>
    1a8c:	68e3      	ldr	r3, [r4, #12]
    1a8e:	735d      	strb	r5, [r3, #13]
    1a90:	7a23      	ldrb	r3, [r4, #8]
    1a92:	1e5a      	subs	r2, r3, #1
    1a94:	2a08      	cmp	r2, #8
    1a96:	d80d      	bhi.n	1ab4 <init_onboard_led+0x50>
    1a98:	e8df f002 	tbb	[pc, r2]
    1a9c:	1d05372a 	.word	0x1d05372a
    1aa0:	05372a0c 	.word	0x05372a0c
    1aa4:	1d          	.byte	0x1d
    1aa5:	00          	.byte	0x00
    1aa6:	2b08      	cmp	r3, #8
    1aa8:	f04f 31ff 	mov.w	r1, #4294967295	; 0xffffffff
    1aac:	4a1f      	ldr	r2, [pc, #124]	; (1b2c <init_onboard_led+0xc8>)
    1aae:	bf18      	it	ne
    1ab0:	2100      	movne	r1, #0
    1ab2:	6711      	str	r1, [r2, #112]	; 0x70
    1ab4:	3b02      	subs	r3, #2
    1ab6:	b2db      	uxtb	r3, r3
    1ab8:	2b07      	cmp	r3, #7
    1aba:	d80a      	bhi.n	1ad2 <init_onboard_led+0x6e>
    1abc:	4a1c      	ldr	r2, [pc, #112]	; (1b30 <init_onboard_led+0xcc>)
    1abe:	f852 2023 	ldr.w	r2, [r2, r3, lsl #2]
    1ac2:	6813      	ldr	r3, [r2, #0]
    1ac4:	4620      	mov	r0, r4
    1ac6:	7aa1      	ldrb	r1, [r4, #10]
    1ac8:	ea43 03c1 	orr.w	r3, r3, r1, lsl #3
    1acc:	6013      	str	r3, [r2, #0]
    1ace:	b003      	add	sp, #12
    1ad0:	bd30      	pop	{r4, r5, pc}
    1ad2:	4a18      	ldr	r2, [pc, #96]	; (1b34 <init_onboard_led+0xd0>)
    1ad4:	e7f5      	b.n	1ac2 <init_onboard_led+0x5e>
    1ad6:	2b09      	cmp	r3, #9
    1ad8:	f1a3 0302 	sub.w	r3, r3, #2
    1adc:	f04f 31ff 	mov.w	r1, #4294967295	; 0xffffffff
    1ae0:	4a12      	ldr	r2, [pc, #72]	; (1b2c <init_onboard_led+0xc8>)
    1ae2:	b2db      	uxtb	r3, r3
    1ae4:	bf18      	it	ne
    1ae6:	2100      	movne	r1, #0
    1ae8:	2b07      	cmp	r3, #7
    1aea:	6751      	str	r1, [r2, #116]	; 0x74
    1aec:	d8f1      	bhi.n	1ad2 <init_onboard_led+0x6e>
    1aee:	e7e5      	b.n	1abc <init_onboard_led+0x58>
    1af0:	2b06      	cmp	r3, #6
    1af2:	f1a3 0302 	sub.w	r3, r3, #2
    1af6:	f04f 31ff 	mov.w	r1, #4294967295	; 0xffffffff
    1afa:	4a0c      	ldr	r2, [pc, #48]	; (1b2c <init_onboard_led+0xc8>)
    1afc:	b2db      	uxtb	r3, r3
    1afe:	bf18      	it	ne
    1b00:	2100      	movne	r1, #0
    1b02:	2b07      	cmp	r3, #7
    1b04:	6691      	str	r1, [r2, #104]	; 0x68
    1b06:	d8e4      	bhi.n	1ad2 <init_onboard_led+0x6e>
    1b08:	e7d8      	b.n	1abc <init_onboard_led+0x58>
    1b0a:	2b07      	cmp	r3, #7
    1b0c:	f1a3 0302 	sub.w	r3, r3, #2
    1b10:	f04f 31ff 	mov.w	r1, #4294967295	; 0xffffffff
    1b14:	4a05      	ldr	r2, [pc, #20]	; (1b2c <init_onboard_led+0xc8>)
    1b16:	b2db      	uxtb	r3, r3
    1b18:	bf18      	it	ne
    1b1a:	2100      	movne	r1, #0
    1b1c:	2b07      	cmp	r3, #7
    1b1e:	66d1      	str	r1, [r2, #108]	; 0x6c
    1b20:	d8d7      	bhi.n	1ad2 <init_onboard_led+0x6e>
    1b22:	e7cb      	b.n	1abc <init_onboard_led+0x58>
    1b24:	401f813c 	.word	0x401f813c
    1b28:	401f832c 	.word	0x401f832c
    1b2c:	400ac000 	.word	0x400ac000
    1b30:	20000000 	.word	0x20000000
    1b34:	401b8004 	.word	0x401b8004

00001b38 <blinky_led_example_PIT>:
    1b38:	b5f0      	push	{r4, r5, r6, r7, lr}
    1b3a:	b089      	sub	sp, #36	; 0x24
    1b3c:	460d      	mov	r5, r1
    1b3e:	f7ff ff91 	bl	1a64 <init_onboard_led>
    1b42:	4c10      	ldr	r4, [pc, #64]	; (1b84 <blinky_led_example_PIT+0x4c>)
    1b44:	ab08      	add	r3, sp, #32
    1b46:	2200      	movs	r2, #0
    1b48:	4f0f      	ldr	r7, [pc, #60]	; (1b88 <blinky_led_example_PIT+0x50>)
    1b4a:	2608      	movs	r6, #8
    1b4c:	e913 0003 	ldmdb	r3, {r0, r1}
    1b50:	2301      	movs	r3, #1
    1b52:	e9cd 3403 	strd	r3, r4, [sp, #12]
    1b56:	ac01      	add	r4, sp, #4
    1b58:	e884 0003 	stmia.w	r4, {r0, r1}
    1b5c:	2003      	movs	r0, #3
    1b5e:	4611      	mov	r1, r2
    1b60:	4c0a      	ldr	r4, [pc, #40]	; (1b8c <blinky_led_example_PIT+0x54>)
    1b62:	9000      	str	r0, [sp, #0]
    1b64:	4628      	mov	r0, r5
    1b66:	f7ff fcc3 	bl	14f0 <init_pitman>
    1b6a:	4628      	mov	r0, r5
    1b6c:	f7ff fcf4 	bl	1558 <setupPITx>
    1b70:	f8d4 3104 	ldr.w	r3, [r4, #260]	; 0x104
    1b74:	2b03      	cmp	r3, #3
    1b76:	d8fb      	bhi.n	1b70 <blinky_led_example_PIT+0x38>
    1b78:	4628      	mov	r0, r5
    1b7a:	f7ff fced 	bl	1558 <setupPITx>
    1b7e:	f8c7 608c 	str.w	r6, [r7, #140]	; 0x8c
    1b82:	e7f5      	b.n	1b70 <blinky_led_example_PIT+0x38>
    1b84:	00001849 	.word	0x00001849
    1b88:	42004000 	.word	0x42004000
    1b8c:	40084000 	.word	0x40084000

00001b90 <blinky_led_abstracted_example>:
    1b90:	b510      	push	{r4, lr}
    1b92:	2003      	movs	r0, #3
    1b94:	b082      	sub	sp, #8
    1b96:	2405      	movs	r4, #5
    1b98:	2338      	movs	r3, #56	; 0x38
    1b9a:	4a05      	ldr	r2, [pc, #20]	; (1bb0 <blinky_led_abstracted_example+0x20>)
    1b9c:	4905      	ldr	r1, [pc, #20]	; (1bb4 <blinky_led_abstracted_example+0x24>)
    1b9e:	e9cd 0400 	strd	r0, r4, [sp]
    1ba2:	2000      	movs	r0, #0
    1ba4:	f7fe fa3c 	bl	20 <init_device_muxmode>
    1ba8:	2300      	movs	r3, #0
    1baa:	735b      	strb	r3, [r3, #13]
    1bac:	deff      	udf	#255	; 0xff
    1bae:	bf00      	nop
    1bb0:	401f832c 	.word	0x401f832c
    1bb4:	401f813c 	.word	0x401f813c

00001bb8 <blinky_led_original_example>:
    1bb8:	4b25      	ldr	r3, [pc, #148]	; (1c50 <blinky_led_original_example+0x98>)
    1bba:	2005      	movs	r0, #5
    1bbc:	2138      	movs	r1, #56	; 0x38
    1bbe:	4a25      	ldr	r2, [pc, #148]	; (1c54 <blinky_led_original_example+0x9c>)
    1bc0:	b510      	push	{r4, lr}
    1bc2:	f8c3 0148 	str.w	r0, [r3, #328]	; 0x148
    1bc6:	b082      	sub	sp, #8
    1bc8:	f8c3 1338 	str.w	r1, [r3, #824]	; 0x338
    1bcc:	f04f 33ff 	mov.w	r3, #4294967295	; 0xffffffff
    1bd0:	4c21      	ldr	r4, [pc, #132]	; (1c58 <blinky_led_original_example+0xa0>)
    1bd2:	2010      	movs	r0, #16
    1bd4:	66d3      	str	r3, [r2, #108]	; 0x6c
    1bd6:	6863      	ldr	r3, [r4, #4]
    1bd8:	f043 0308 	orr.w	r3, r3, #8
    1bdc:	6063      	str	r3, [r4, #4]
    1bde:	f7fe facb 	bl	178 <malloc_>
    1be2:	b108      	cbz	r0, 1be8 <blinky_led_original_example+0x30>
    1be4:	b002      	add	sp, #8
    1be6:	bd10      	pop	{r4, pc}
    1be8:	4601      	mov	r1, r0
    1bea:	f06f 427e 	mvn.w	r2, #4261412864	; 0xfe000000
    1bee:	2008      	movs	r0, #8
    1bf0:	9100      	str	r1, [sp, #0]
    1bf2:	9101      	str	r1, [sp, #4]
    1bf4:	f8c4 008c 	str.w	r0, [r4, #140]	; 0x8c
    1bf8:	9b00      	ldr	r3, [sp, #0]
    1bfa:	4293      	cmp	r3, r2
    1bfc:	d20e      	bcs.n	1c1c <blinky_led_original_example+0x64>
    1bfe:	9b00      	ldr	r3, [sp, #0]
    1c00:	3301      	adds	r3, #1
    1c02:	9300      	str	r3, [sp, #0]
    1c04:	9b01      	ldr	r3, [sp, #4]
    1c06:	4293      	cmp	r3, r2
    1c08:	d2f6      	bcs.n	1bf8 <blinky_led_original_example+0x40>
    1c0a:	9b01      	ldr	r3, [sp, #4]
    1c0c:	3301      	adds	r3, #1
    1c0e:	9301      	str	r3, [sp, #4]
    1c10:	9b01      	ldr	r3, [sp, #4]
    1c12:	4293      	cmp	r3, r2
    1c14:	d3f9      	bcc.n	1c0a <blinky_led_original_example+0x52>
    1c16:	9b00      	ldr	r3, [sp, #0]
    1c18:	4293      	cmp	r3, r2
    1c1a:	d3f0      	bcc.n	1bfe <blinky_led_original_example+0x46>
    1c1c:	9100      	str	r1, [sp, #0]
    1c1e:	9101      	str	r1, [sp, #4]
    1c20:	f8c4 008c 	str.w	r0, [r4, #140]	; 0x8c
    1c24:	9b00      	ldr	r3, [sp, #0]
    1c26:	4293      	cmp	r3, r2
    1c28:	d20e      	bcs.n	1c48 <blinky_led_original_example+0x90>
    1c2a:	9b00      	ldr	r3, [sp, #0]
    1c2c:	3301      	adds	r3, #1
    1c2e:	9300      	str	r3, [sp, #0]
    1c30:	9b01      	ldr	r3, [sp, #4]
    1c32:	4293      	cmp	r3, r2
    1c34:	d2f6      	bcs.n	1c24 <blinky_led_original_example+0x6c>
    1c36:	9b01      	ldr	r3, [sp, #4]
    1c38:	3301      	adds	r3, #1
    1c3a:	9301      	str	r3, [sp, #4]
    1c3c:	9b01      	ldr	r3, [sp, #4]
    1c3e:	4293      	cmp	r3, r2
    1c40:	d3f9      	bcc.n	1c36 <blinky_led_original_example+0x7e>
    1c42:	9b00      	ldr	r3, [sp, #0]
    1c44:	4293      	cmp	r3, r2
    1c46:	d3f0      	bcc.n	1c2a <blinky_led_original_example+0x72>
    1c48:	9100      	str	r1, [sp, #0]
    1c4a:	9101      	str	r1, [sp, #4]
    1c4c:	e7d0      	b.n	1bf0 <blinky_led_original_example+0x38>
    1c4e:	bf00      	nop
    1c50:	401f8000 	.word	0x401f8000
    1c54:	400ac000 	.word	0x400ac000
    1c58:	42004000 	.word	0x42004000
    1c5c:	00000000 	.word	0x00000000
